ARM Linker, 5.03 [Build 76] [MDK-ARM Professional]

==============================================================================

Section Cross References

    stm32f0_discovery.o(i.STM_EVAL_LEDInit) refers to stm32f0xx_rcc.o(i.RCC_AHBPeriphClockCmd) for RCC_AHBPeriphClockCmd
    stm32f0_discovery.o(i.STM_EVAL_LEDInit) refers to stm32f0xx_gpio.o(i.GPIO_Init) for GPIO_Init
    stm32f0_discovery.o(i.STM_EVAL_LEDInit) refers to led.o(.constdata) for GPIO_CLK
    stm32f0_discovery.o(i.STM_EVAL_LEDInit) refers to led.o(.data) for GPIO_PORT
    stm32f0_discovery.o(i.STM_EVAL_LEDOff) refers to led.o(.constdata) for GPIO_PIN
    stm32f0_discovery.o(i.STM_EVAL_LEDOff) refers to led.o(.data) for GPIO_PORT
    stm32f0_discovery.o(i.STM_EVAL_LEDOn) refers to led.o(.constdata) for GPIO_PIN
    stm32f0_discovery.o(i.STM_EVAL_LEDOn) refers to led.o(.data) for GPIO_PORT
    stm32f0_discovery.o(i.STM_EVAL_LEDToggle) refers to led.o(.data) for GPIO_PORT
    stm32f0_discovery.o(i.STM_EVAL_LEDToggle) refers to led.o(.constdata) for GPIO_PIN
    stm32f0_discovery.o(i.STM_EVAL_PBGetState) refers to stm32f0xx_gpio.o(i.GPIO_ReadInputDataBit) for GPIO_ReadInputDataBit
    stm32f0_discovery.o(i.STM_EVAL_PBGetState) refers to stm32f0_discovery.o(.constdata) for BUTTON_PIN
    stm32f0_discovery.o(i.STM_EVAL_PBGetState) refers to stm32f0_discovery.o(.data) for BUTTON_PORT
    stm32f0_discovery.o(i.STM_EVAL_PBInit) refers to stm32f0xx_rcc.o(i.RCC_AHBPeriphClockCmd) for RCC_AHBPeriphClockCmd
    stm32f0_discovery.o(i.STM_EVAL_PBInit) refers to stm32f0xx_rcc.o(i.RCC_APB2PeriphClockCmd) for RCC_APB2PeriphClockCmd
    stm32f0_discovery.o(i.STM_EVAL_PBInit) refers to stm32f0xx_gpio.o(i.GPIO_Init) for GPIO_Init
    stm32f0_discovery.o(i.STM_EVAL_PBInit) refers to stm32f0xx_syscfg.o(i.SYSCFG_EXTILineConfig) for SYSCFG_EXTILineConfig
    stm32f0_discovery.o(i.STM_EVAL_PBInit) refers to stm32f0xx_exti.o(i.EXTI_Init) for EXTI_Init
    stm32f0_discovery.o(i.STM_EVAL_PBInit) refers to stm32f0xx_misc.o(i.NVIC_Init) for NVIC_Init
    stm32f0_discovery.o(i.STM_EVAL_PBInit) refers to stm32f0_discovery.o(.constdata) for BUTTON_CLK
    stm32f0_discovery.o(i.STM_EVAL_PBInit) refers to stm32f0_discovery.o(.data) for BUTTON_PORT
    startup_stm32f0xx.o(RESET) refers to startup_stm32f0xx.o(STACK) for __initial_sp
    startup_stm32f0xx.o(RESET) refers to startup_stm32f0xx.o(.text) for Reset_Handler
    startup_stm32f0xx.o(RESET) refers to stm32f0xx_it.o(i.NMI_Handler) for NMI_Handler
    startup_stm32f0xx.o(RESET) refers to stm32f0xx_it.o(i.HardFault_Handler) for HardFault_Handler
    startup_stm32f0xx.o(RESET) refers to stm32f0xx_it.o(i.SVC_Handler) for SVC_Handler
    startup_stm32f0xx.o(RESET) refers to stm32f0xx_it.o(i.PendSV_Handler) for PendSV_Handler
    startup_stm32f0xx.o(RESET) refers to stm32f0xx_it.o(i.SysTick_Handler) for SysTick_Handler
    startup_stm32f0xx.o(RESET) refers to stm32f0xx_it.o(i.RTC_IRQHandler) for RTC_IRQHandler
    startup_stm32f0xx.o(RESET) refers to stm32f0xx_it.o(i.EXTI0_1_IRQHandler) for EXTI0_1_IRQHandler
    startup_stm32f0xx.o(RESET) refers to stm32f0xx_it.o(i.EXTI4_15_IRQHandler) for EXTI4_15_IRQHandler
    startup_stm32f0xx.o(RESET) refers to stm32f0xx_it.o(i.TIM3_IRQHandler) for TIM3_IRQHandler
    startup_stm32f0xx.o(RESET) refers to usart1.o(i.USART1_IRQHandler) for USART1_IRQHandler
    startup_stm32f0xx.o(RESET) refers to usart1.o(i.USART2_IRQHandler) for USART2_IRQHandler
    startup_stm32f0xx.o(.text) refers to system_stm32f0xx.o(i.SystemInit) for SystemInit
    startup_stm32f0xx.o(.text) refers to entry.o(.ARM.Collect$$$$00000000) for __main
    smscmd.o(i.Cmd_ACC) refers to strstr.o(.text) for strstr
    smscmd.o(i.Cmd_ACC) refers to strncmp.o(.text) for strncmp
    smscmd.o(i.Cmd_ACC) refers to gsm.o(i.SendMsg_Password_error) for SendMsg_Password_error
    smscmd.o(i.Cmd_ACC) refers to gsm.o(i.SendMsg_Parameter_error) for SendMsg_Parameter_error
    smscmd.o(i.Cmd_ACC) refers to gsm.o(i.SendMsg) for SendMsg
    smscmd.o(i.Cmd_ACC) refers to main.o(i.Store_System_Para) for Store_System_Para
    smscmd.o(i.Cmd_ACC) refers to main.o(i.sys_Init) for sys_Init
    smscmd.o(i.Cmd_ACC) refers to main.o(.bss) for g_ucSim900Buff
    smscmd.o(i.Cmd_CXCS) refers to memseta.o(.text) for __aeabi_memclr4
    smscmd.o(i.Cmd_CXCS) refers to smscmd.o(i.sub_cxcs) for sub_cxcs
    smscmd.o(i.Cmd_CXCS) refers to strncat.o(.text) for strncat
    smscmd.o(i.Cmd_CXCS) refers to strlen.o(.text) for strlen
    smscmd.o(i.Cmd_CXCS) refers to strncpy.o(.text) for strncpy
    smscmd.o(i.Cmd_CXCS) refers to gsm.o(i.deal_g_ucSim900Status) for deal_g_ucSim900Status
    smscmd.o(i.Cmd_CXCS) refers to usart1.o(i.ddi_uart_Write) for ddi_uart_Write
    smscmd.o(i.Cmd_CXCS) refers to gsm.o(i.WaitGSMOK1) for WaitGSMOK1
    smscmd.o(i.Cmd_CXCS) refers to gsm.o(i.WaitGSMOK2) for WaitGSMOK2
    smscmd.o(i.Cmd_CXCS) refers to i2c_lsm330.o(i.delayms) for delayms
    smscmd.o(i.Cmd_CXCS) refers to main.o(.bss) for g_ucCurrentNum
    smscmd.o(i.Cmd_CXCS) refers to usart1.o(.bss) for UART1_ctl_t
    smscmd.o(i.Cmd_CXCS) refers to main.o(.data) for g_ucSim900Status
    smscmd.o(i.Cmd_CXZD) refers to memseta.o(.text) for __aeabi_memclr4
    smscmd.o(i.Cmd_CXZD) refers to strncat.o(.text) for strncat
    smscmd.o(i.Cmd_CXZD) refers to gsm.o(i.hextoascii) for hextoascii
    smscmd.o(i.Cmd_CXZD) refers to gsm.o(i.GetGPRSStatus) for GetGPRSStatus
    smscmd.o(i.Cmd_CXZD) refers to usart1.o(i.ddi_uart_Write) for ddi_uart_Write
    smscmd.o(i.Cmd_CXZD) refers to gsm.o(i.WaitGSMOK1) for WaitGSMOK1
    smscmd.o(i.Cmd_CXZD) refers to strstr.o(.text) for strstr
    smscmd.o(i.Cmd_CXZD) refers to stm32f0xx_iwdg.o(i.IWDG_ReloadCounter) for IWDG_ReloadCounter
    smscmd.o(i.Cmd_CXZD) refers to gsm.o(i.GetAvailableGPSInfoV_N) for GetAvailableGPSInfoV_N
    smscmd.o(i.Cmd_CXZD) refers to gprs.o(i.asciitospeed) for asciitospeed
    smscmd.o(i.Cmd_CXZD) refers to idiv.o(.text) for __aeabi_idivmod
    smscmd.o(i.Cmd_CXZD) refers to gsm.o(i.hex2BCD_ASCII) for hex2BCD_ASCII
    smscmd.o(i.Cmd_CXZD) refers to strlen.o(.text) for strlen
    smscmd.o(i.Cmd_CXZD) refers to gsm.o(i.SendMsg) for SendMsg
    smscmd.o(i.Cmd_CXZD) refers to i2c_lsm330.o(i.delayms) for delayms
    smscmd.o(i.Cmd_CXZD) refers to main.o(.constdata) for g_ucVERSION
    smscmd.o(i.Cmd_CXZD) refers to main.o(.bss) for system_para
    smscmd.o(i.Cmd_CXZD) refers to gsm.o(.data) for dial_status
    smscmd.o(i.Cmd_CXZD) refers to usart1.o(.bss) for UART1_ctl_t
    smscmd.o(i.Cmd_CXZD) refers to main.o(.data) for gps_gate
    smscmd.o(i.Cmd_CXZD) refers to gps.o(.data) for dingwei_flag
    smscmd.o(i.Cmd_CXZD) refers to gps.o(.bss) for gps_ascii
    smscmd.o(i.Cmd_CellID) refers to strlen.o(.text) for strlen
    smscmd.o(i.Cmd_CellID) refers to strstr.o(.text) for strstr
    smscmd.o(i.Cmd_CellID) refers to strncmp.o(.text) for strncmp
    smscmd.o(i.Cmd_CellID) refers to gsm.o(i.SendMsg_Parameter_error) for SendMsg_Parameter_error
    smscmd.o(i.Cmd_CellID) refers to gsm.o(i.SendMsg_Password_error) for SendMsg_Password_error
    smscmd.o(i.Cmd_CellID) refers to usart1.o(i.ddi_uart_Write) for ddi_uart_Write
    smscmd.o(i.Cmd_CellID) refers to gsm.o(i.WaitGSMOK1) for WaitGSMOK1
    smscmd.o(i.Cmd_CellID) refers to i2c_lsm330.o(i.delayms) for delayms
    smscmd.o(i.Cmd_CellID) refers to gsm.o(i.WaitGSMOK2) for WaitGSMOK2
    smscmd.o(i.Cmd_CellID) refers to main.o(.bss) for g_ucCurrentNum
    smscmd.o(i.Cmd_CellID) refers to usart1.o(.bss) for UART1_ctl_t
    smscmd.o(i.Cmd_DeviceInfo) refers to strlen.o(.text) for strlen
    smscmd.o(i.Cmd_DeviceInfo) refers to strstr.o(.text) for strstr
    smscmd.o(i.Cmd_DeviceInfo) refers to strncmp.o(.text) for strncmp
    smscmd.o(i.Cmd_DeviceInfo) refers to gsm.o(i.SendMsg_Password_error) for SendMsg_Password_error
    smscmd.o(i.Cmd_DeviceInfo) refers to gsm.o(i.BatteryStatusGet) for BatteryStatusGet
    smscmd.o(i.Cmd_DeviceInfo) refers to usart1.o(i.ddi_uart_Write) for ddi_uart_Write
    smscmd.o(i.Cmd_DeviceInfo) refers to i2c_lsm330.o(i.delayms) for delayms
    smscmd.o(i.Cmd_DeviceInfo) refers to gsm.o(i.hextoascii) for hextoascii
    smscmd.o(i.Cmd_DeviceInfo) refers to idiv.o(.text) for __aeabi_idivmod
    smscmd.o(i.Cmd_DeviceInfo) refers to gsm.o(i.WaitGSMOK2) for WaitGSMOK2
    smscmd.o(i.Cmd_DeviceInfo) refers to main.o(.bss) for g_ucCurrentNum
    smscmd.o(i.Cmd_DeviceInfo) refers to usart1.o(.bss) for UART1_ctl_t
    smscmd.o(i.Cmd_Duration) refers to strstr.o(.text) for strstr
    smscmd.o(i.Cmd_Duration) refers to strncmp.o(.text) for strncmp
    smscmd.o(i.Cmd_Duration) refers to gsm.o(i.SendMsg_Password_error) for SendMsg_Password_error
    smscmd.o(i.Cmd_Duration) refers to memseta.o(.text) for __aeabi_memclr4
    smscmd.o(i.Cmd_Duration) refers to strncpy.o(.text) for strncpy
    smscmd.o(i.Cmd_Duration) refers to gsm.o(i.SendMsg_Parameter_error) for SendMsg_Parameter_error
    smscmd.o(i.Cmd_Duration) refers to idiv.o(.text) for __aeabi_idivmod
    smscmd.o(i.Cmd_Duration) refers to strcat.o(.text) for strcat
    smscmd.o(i.Cmd_Duration) refers to strlen.o(.text) for strlen
    smscmd.o(i.Cmd_Duration) refers to gsm.o(i.SendMsg) for SendMsg
    smscmd.o(i.Cmd_Duration) refers to main.o(i.Store_System_Para) for Store_System_Para
    smscmd.o(i.Cmd_Duration) refers to main.o(i.sys_Init) for sys_Init
    smscmd.o(i.Cmd_Duration) refers to strncat.o(.text) for strncat
    smscmd.o(i.Cmd_Duration) refers to main.o(.bss) for g_ucSim900Buff
    smscmd.o(i.Cmd_Duration) refers to smscmd.o(.data) for WakeTime1
    smscmd.o(i.Cmd_ENAUTOSMS) refers to strstr.o(.text) for strstr
    smscmd.o(i.Cmd_ENAUTOSMS) refers to strncmp.o(.text) for strncmp
    smscmd.o(i.Cmd_ENAUTOSMS) refers to gsm.o(i.SendMsg_Password_error) for SendMsg_Password_error
    smscmd.o(i.Cmd_ENAUTOSMS) refers to gsm.o(i.SendMsg_Parameter_error) for SendMsg_Parameter_error
    smscmd.o(i.Cmd_ENAUTOSMS) refers to gsm.o(i.SendMsg) for SendMsg
    smscmd.o(i.Cmd_ENAUTOSMS) refers to main.o(i.Store_System_Para) for Store_System_Para
    smscmd.o(i.Cmd_ENAUTOSMS) refers to main.o(.bss) for g_ucSim900Buff
    smscmd.o(i.Cmd_IMEI) refers to memseta.o(.text) for __aeabi_memclr4
    smscmd.o(i.Cmd_IMEI) refers to strstr.o(.text) for strstr
    smscmd.o(i.Cmd_IMEI) refers to strncmp.o(.text) for strncmp
    smscmd.o(i.Cmd_IMEI) refers to gsm.o(i.SendMsg_Parameter_error) for SendMsg_Parameter_error
    smscmd.o(i.Cmd_IMEI) refers to gsm.o(i.SendMsg_Password_error) for SendMsg_Password_error
    smscmd.o(i.Cmd_IMEI) refers to usart1.o(i.ddi_uart_Write) for ddi_uart_Write
    smscmd.o(i.Cmd_IMEI) refers to gsm.o(i.WaitGSMOK1) for WaitGSMOK1
    smscmd.o(i.Cmd_IMEI) refers to strncpy.o(.text) for strncpy
    smscmd.o(i.Cmd_IMEI) refers to memcpya.o(.text) for __aeabi_memcpy
    smscmd.o(i.Cmd_IMEI) refers to strlen.o(.text) for strlen
    smscmd.o(i.Cmd_IMEI) refers to gsm.o(i.SendMsg) for SendMsg
    smscmd.o(i.Cmd_IMEI) refers to main.o(.bss) for g_ucSim900Buff
    smscmd.o(i.Cmd_IMEI) refers to usart1.o(.bss) for UART1_ctl_t
    smscmd.o(i.Cmd_Initial) refers to strstr.o(.text) for strstr
    smscmd.o(i.Cmd_Initial) refers to strncmp.o(.text) for strncmp
    smscmd.o(i.Cmd_Initial) refers to gsm.o(i.SendMsg_Parameter_error) for SendMsg_Parameter_error
    smscmd.o(i.Cmd_Initial) refers to gsm.o(i.SendMsg_Password_error) for SendMsg_Password_error
    smscmd.o(i.Cmd_Initial) refers to main.o(i.RestoreSystem) for RestoreSystem
    smscmd.o(i.Cmd_Initial) refers to main.o(i.Store_System_Para) for Store_System_Para
    smscmd.o(i.Cmd_Initial) refers to main.o(i.sys_Init) for sys_Init
    smscmd.o(i.Cmd_Initial) refers to gsm.o(i.SendMsg) for SendMsg
    smscmd.o(i.Cmd_Initial) refers to main.o(.bss) for g_ucSim900Buff
    smscmd.o(i.Cmd_NewNum) refers to strstr.o(.text) for strstr
    smscmd.o(i.Cmd_NewNum) refers to strncmp.o(.text) for strncmp
    smscmd.o(i.Cmd_NewNum) refers to gsm.o(i.SendMsg_Password_error) for SendMsg_Password_error
    smscmd.o(i.Cmd_NewNum) refers to gsm.o(i.SendMsg_Parameter_error) for SendMsg_Parameter_error
    smscmd.o(i.Cmd_NewNum) refers to memseta.o(.text) for __aeabi_memclr
    smscmd.o(i.Cmd_NewNum) refers to smscmd.o(i.all_ascii0) for all_ascii0
    smscmd.o(i.Cmd_NewNum) refers to main.o(i.Store_System_Para) for Store_System_Para
    smscmd.o(i.Cmd_NewNum) refers to main.o(i.sys_Init) for sys_Init
    smscmd.o(i.Cmd_NewNum) refers to gsm.o(i.SendMsg) for SendMsg
    smscmd.o(i.Cmd_NewNum) refers to main.o(.bss) for g_ucSim900Buff
    smscmd.o(i.Cmd_Position) refers to strstr.o(.text) for strstr
    smscmd.o(i.Cmd_Position) refers to strncmp.o(.text) for strncmp
    smscmd.o(i.Cmd_Position) refers to gsm.o(i.SendMsg_Password_error) for SendMsg_Password_error
    smscmd.o(i.Cmd_Position) refers to gsm.o(i.SendLocaSMS1) for SendLocaSMS1
    smscmd.o(i.Cmd_Position) refers to gsm.o(i.SendMsg_Parameter_error) for SendMsg_Parameter_error
    smscmd.o(i.Cmd_Position) refers to main.o(.bss) for g_ucSim900Buff
    smscmd.o(i.Cmd_SETM) refers to strstr.o(.text) for strstr
    smscmd.o(i.Cmd_SETM) refers to memcpya.o(.text) for __aeabi_memcpy
    smscmd.o(i.Cmd_SETM) refers to gsm.o(i.asciitohex) for asciitohex
    smscmd.o(i.Cmd_SETM) refers to gsm.o(i.hex2BCD_ASCII1) for hex2BCD_ASCII1
    smscmd.o(i.Cmd_SETM) refers to idiv.o(.text) for __aeabi_idivmod
    smscmd.o(i.Cmd_SETM) refers to uwrite4.o(.text) for __aeabi_uwrite4
    smscmd.o(i.Cmd_SETM) refers to uread4.o(.text) for __aeabi_uread4
    smscmd.o(i.Cmd_SETM) refers to main.o(.bss) for g_ucSim900Buff
    smscmd.o(i.Cmd_SETM) refers to led.o(i.set_OIL_BREAK) for set_OIL_BREAK
    smscmd.o(i.Cmd_SETM) refers to memseta.o(.text) for __aeabi_memclr
    smscmd.o(i.Cmd_SETM) refers to smscmd.o(i.all_ascii0) for all_ascii0
    smscmd.o(i.Cmd_SETM) refers to lsm330dlc_driver.o(i.set_Impact) for set_Impact
    smscmd.o(i.Cmd_SETM) refers to main.o(i.Store_System_Para) for Store_System_Para
    smscmd.o(i.Cmd_SETM) refers to main.o(i.sys_Init) for sys_Init
    smscmd.o(i.Cmd_SetMode) refers to strstr.o(.text) for strstr
    smscmd.o(i.Cmd_SetMode) refers to strncmp.o(.text) for strncmp
    smscmd.o(i.Cmd_SetMode) refers to gsm.o(i.SendMsg_Password_error) for SendMsg_Password_error
    smscmd.o(i.Cmd_SetMode) refers to gsm.o(i.SendMsg_Parameter_error) for SendMsg_Parameter_error
    smscmd.o(i.Cmd_SetMode) refers to gsm.o(i.SendMsg) for SendMsg
    smscmd.o(i.Cmd_SetMode) refers to main.o(i.Store_System_Para) for Store_System_Para
    smscmd.o(i.Cmd_SetMode) refers to main.o(i.sys_Init) for sys_Init
    smscmd.o(i.Cmd_SetMode) refers to i2c_lsm330.o(i.delayms) for delayms
    smscmd.o(i.Cmd_SetMode) refers to main.o(.bss) for g_ucSim900Buff
    smscmd.o(i.Cmd_SetMode) refers to main.o(.data) for g_ucGotoSleepFlag
    smscmd.o(i.Cmd_SetNET) refers to strstr.o(.text) for strstr
    smscmd.o(i.Cmd_SetNET) refers to strncmp.o(.text) for strncmp
    smscmd.o(i.Cmd_SetNET) refers to gsm.o(i.SendMsg_Password_error) for SendMsg_Password_error
    smscmd.o(i.Cmd_SetNET) refers to memseta.o(.text) for __aeabi_memclr4
    smscmd.o(i.Cmd_SetNET) refers to strncat.o(.text) for strncat
    smscmd.o(i.Cmd_SetNET) refers to strlen.o(.text) for strlen
    smscmd.o(i.Cmd_SetNET) refers to gsm.o(i.SendMsg) for SendMsg
    smscmd.o(i.Cmd_SetNET) refers to main.o(i.Store_System_Para) for Store_System_Para
    smscmd.o(i.Cmd_SetNET) refers to main.o(i.sys_Init) for sys_Init
    smscmd.o(i.Cmd_SetNET) refers to i2c_lsm330.o(i.delayms) for delayms
    smscmd.o(i.Cmd_SetNET) refers to main.o(i.check_sleep_state) for check_sleep_state
    smscmd.o(i.Cmd_SetNET) refers to led.o(i.GSM_reset) for GSM_reset
    smscmd.o(i.Cmd_SetNET) refers to gsm.o(i.GetGPRSStatus) for GetGPRSStatus
    smscmd.o(i.Cmd_SetNET) refers to gsm.o(i.StartGPRS) for StartGPRS
    smscmd.o(i.Cmd_SetNET) refers to led.o(i.GSM_Power) for GSM_Power
    smscmd.o(i.Cmd_SetNET) refers to main.o(.bss) for g_ucSim900Buff
    smscmd.o(i.Cmd_SetNET) refers to gsm.o(.data) for SMS_StartGSM_Flag
    smscmd.o(i.Cmd_SetPsw) refers to memcpya.o(.text) for __aeabi_memcpy
    smscmd.o(i.Cmd_SetPsw) refers to strstr.o(.text) for strstr
    smscmd.o(i.Cmd_SetPsw) refers to strncmp.o(.text) for strncmp
    smscmd.o(i.Cmd_SetPsw) refers to gsm.o(i.SendMsg_Parameter_error) for SendMsg_Parameter_error
    smscmd.o(i.Cmd_SetPsw) refers to gsm.o(i.SendMsg) for SendMsg
    smscmd.o(i.Cmd_SetPsw) refers to strncpy.o(.text) for strncpy
    smscmd.o(i.Cmd_SetPsw) refers to main.o(i.Store_System_Para) for Store_System_Para
    smscmd.o(i.Cmd_SetPsw) refers to gsm.o(i.SendMsg_Password_error) for SendMsg_Password_error
    smscmd.o(i.Cmd_SetPsw) refers to main.o(i.sys_Init) for sys_Init
    smscmd.o(i.Cmd_SetPsw) refers to main.o(.bss) for system_para
    smscmd.o(i.Cmd_SetWakeTime) refers to strstr.o(.text) for strstr
    smscmd.o(i.Cmd_SetWakeTime) refers to strncmp.o(.text) for strncmp
    smscmd.o(i.Cmd_SetWakeTime) refers to gsm.o(i.SendMsg_Password_error) for SendMsg_Password_error
    smscmd.o(i.Cmd_SetWakeTime) refers to memseta.o(.text) for __aeabi_memclr4
    smscmd.o(i.Cmd_SetWakeTime) refers to strncat.o(.text) for strncat
    smscmd.o(i.Cmd_SetWakeTime) refers to gsm.o(i.SendMsg_Parameter_error) for SendMsg_Parameter_error
    smscmd.o(i.Cmd_SetWakeTime) refers to uread4.o(.text) for __aeabi_uread4
    smscmd.o(i.Cmd_SetWakeTime) refers to idiv.o(.text) for __aeabi_idivmod
    smscmd.o(i.Cmd_SetWakeTime) refers to strlen.o(.text) for strlen
    smscmd.o(i.Cmd_SetWakeTime) refers to gsm.o(i.SendMsg) for SendMsg
    smscmd.o(i.Cmd_SetWakeTime) refers to uwrite4.o(.text) for __aeabi_uwrite4
    smscmd.o(i.Cmd_SetWakeTime) refers to main.o(i.Store_System_Para) for Store_System_Para
    smscmd.o(i.Cmd_SetWakeTime) refers to main.o(i.sys_Init) for sys_Init
    smscmd.o(i.Cmd_SetWakeTime) refers to main.o(.bss) for g_ucSim900Buff
    smscmd.o(i.Cmd_SetWakeTime) refers to main.o(.data) for TimeUpLdCnt
    smscmd.o(i.Cmd_Setmid) refers to strstr.o(.text) for strstr
    smscmd.o(i.Cmd_Setmid) refers to strncmp.o(.text) for strncmp
    smscmd.o(i.Cmd_Setmid) refers to gsm.o(i.SendMsg_Parameter_error) for SendMsg_Parameter_error
    smscmd.o(i.Cmd_Setmid) refers to memcpya.o(.text) for __aeabi_memcpy
    smscmd.o(i.Cmd_Setmid) refers to gsm.o(i.SendMsg) for SendMsg
    smscmd.o(i.Cmd_Setmid) refers to gsm.o(i.asciitohex) for asciitohex
    smscmd.o(i.Cmd_Setmid) refers to gsm.o(i.hex2BCD_ASCII1) for hex2BCD_ASCII1
    smscmd.o(i.Cmd_Setmid) refers to main.o(i.Store_System_Para) for Store_System_Para
    smscmd.o(i.Cmd_Setmid) refers to main.o(i.sys_Init) for sys_Init
    smscmd.o(i.Cmd_Setmid) refers to gsm.o(i.SendMsg_Password_error) for SendMsg_Password_error
    smscmd.o(i.Cmd_Setmid) refers to main.o(.bss) for g_ucSim900Buff
    smscmd.o(i.Cmd_ShowRegNum) refers to strstr.o(.text) for strstr
    smscmd.o(i.Cmd_ShowRegNum) refers to strncmp.o(.text) for strncmp
    smscmd.o(i.Cmd_ShowRegNum) refers to gsm.o(i.SendMsg_Parameter_error) for SendMsg_Parameter_error
    smscmd.o(i.Cmd_ShowRegNum) refers to gsm.o(i.SendMsg_Password_error) for SendMsg_Password_error
    smscmd.o(i.Cmd_ShowRegNum) refers to strcat.o(.text) for strcat
    smscmd.o(i.Cmd_ShowRegNum) refers to strlen.o(.text) for strlen
    smscmd.o(i.Cmd_ShowRegNum) refers to strncat.o(.text) for strncat
    smscmd.o(i.Cmd_ShowRegNum) refers to gsm.o(i.SendMsg) for SendMsg
    smscmd.o(i.Cmd_ShowRegNum) refers to main.o(.bss) for g_ucSim900Buff
    smscmd.o(i.Cmd_SleepTime) refers to strstr.o(.text) for strstr
    smscmd.o(i.Cmd_SleepTime) refers to strncmp.o(.text) for strncmp
    smscmd.o(i.Cmd_SleepTime) refers to gsm.o(i.SendMsg_Password_error) for SendMsg_Password_error
    smscmd.o(i.Cmd_SleepTime) refers to gsm.o(i.SendMsg_Parameter_error) for SendMsg_Parameter_error
    smscmd.o(i.Cmd_SleepTime) refers to memseta.o(.text) for __aeabi_memclr4
    smscmd.o(i.Cmd_SleepTime) refers to strncpy.o(.text) for strncpy
    smscmd.o(i.Cmd_SleepTime) refers to idiv.o(.text) for __aeabi_idivmod
    smscmd.o(i.Cmd_SleepTime) refers to strcat.o(.text) for strcat
    smscmd.o(i.Cmd_SleepTime) refers to strlen.o(.text) for strlen
    smscmd.o(i.Cmd_SleepTime) refers to gsm.o(i.SendMsg) for SendMsg
    smscmd.o(i.Cmd_SleepTime) refers to main.o(i.Store_System_Para) for Store_System_Para
    smscmd.o(i.Cmd_SleepTime) refers to main.o(i.sys_Init) for sys_Init
    smscmd.o(i.Cmd_SleepTime) refers to strncat.o(.text) for strncat
    smscmd.o(i.Cmd_SleepTime) refers to main.o(.bss) for g_ucSim900Buff
    smscmd.o(i.Cmd_SleepTime) refers to smscmd.o(.data) for WakeTime1
    smscmd.o(i.Cmd_SpeedLimit) refers to strstr.o(.text) for strstr
    smscmd.o(i.Cmd_SpeedLimit) refers to strncmp.o(.text) for strncmp
    smscmd.o(i.Cmd_SpeedLimit) refers to gsm.o(i.SendMsg_Password_error) for SendMsg_Password_error
    smscmd.o(i.Cmd_SpeedLimit) refers to memseta.o(.text) for __aeabi_memclr4
    smscmd.o(i.Cmd_SpeedLimit) refers to strncpy.o(.text) for strncpy
    smscmd.o(i.Cmd_SpeedLimit) refers to gsm.o(i.SendMsg_Parameter_error) for SendMsg_Parameter_error
    smscmd.o(i.Cmd_SpeedLimit) refers to gsm.o(i.SendMsg) for SendMsg
    smscmd.o(i.Cmd_SpeedLimit) refers to uread4.o(.text) for __aeabi_uread4
    smscmd.o(i.Cmd_SpeedLimit) refers to uwrite4.o(.text) for __aeabi_uwrite4
    smscmd.o(i.Cmd_SpeedLimit) refers to main.o(i.Store_System_Para) for Store_System_Para
    smscmd.o(i.Cmd_SpeedLimit) refers to main.o(i.sys_Init) for sys_Init
    smscmd.o(i.Cmd_SpeedLimit) refers to strcat.o(.text) for strcat
    smscmd.o(i.Cmd_SpeedLimit) refers to strlen.o(.text) for strlen
    smscmd.o(i.Cmd_SpeedLimit) refers to idiv.o(.text) for __aeabi_idivmod
    smscmd.o(i.Cmd_SpeedLimit) refers to main.o(.bss) for g_ucSim900Buff
    smscmd.o(i.Cmd_SpeedLimit) refers to main.o(.data) for g_ucTaskList
    smscmd.o(i.Cmd_chinese_Position) refers to strstr.o(.text) for strstr
    smscmd.o(i.Cmd_chinese_Position) refers to strncmp.o(.text) for strncmp
    smscmd.o(i.Cmd_chinese_Position) refers to gsm.o(i.SendMsg_Password_error) for SendMsg_Password_error
    smscmd.o(i.Cmd_chinese_Position) refers to gprs.o(i.cmd_INQUIRE_CHINESE_POSITION) for cmd_INQUIRE_CHINESE_POSITION
    smscmd.o(i.Cmd_chinese_Position) refers to gsm.o(i.SendMsg_Parameter_error) for SendMsg_Parameter_error
    smscmd.o(i.Cmd_chinese_Position) refers to main.o(.bss) for g_ucSim900Buff
    smscmd.o(i.Cmd_relay) refers to strstr.o(.text) for strstr
    smscmd.o(i.Cmd_relay) refers to strncmp.o(.text) for strncmp
    smscmd.o(i.Cmd_relay) refers to gsm.o(i.SendMsg_Password_error) for SendMsg_Password_error
    smscmd.o(i.Cmd_relay) refers to gsm.o(i.SendMsg_Parameter_error) for SendMsg_Parameter_error
    smscmd.o(i.Cmd_relay) refers to main.o(i.Store_System_Para) for Store_System_Para
    smscmd.o(i.Cmd_relay) refers to main.o(i.sys_Init) for sys_Init
    smscmd.o(i.Cmd_relay) refers to gsm.o(i.SendMsg) for SendMsg
    smscmd.o(i.Cmd_relay) refers to led.o(i.set_OIL_BREAK) for set_OIL_BREAK
    smscmd.o(i.Cmd_relay) refers to main.o(.bss) for g_ucSim900Buff
    smscmd.o(i.Cmd_shocks) refers to strstr.o(.text) for strstr
    smscmd.o(i.Cmd_shocks) refers to strncmp.o(.text) for strncmp
    smscmd.o(i.Cmd_shocks) refers to gsm.o(i.SendMsg_Password_error) for SendMsg_Password_error
    smscmd.o(i.Cmd_shocks) refers to memseta.o(.text) for __aeabi_memclr4
    smscmd.o(i.Cmd_shocks) refers to strncpy.o(.text) for strncpy
    smscmd.o(i.Cmd_shocks) refers to gsm.o(i.SendMsg_Parameter_error) for SendMsg_Parameter_error
    smscmd.o(i.Cmd_shocks) refers to lsm330dlc_driver.o(i.set_Impact) for set_Impact
    smscmd.o(i.Cmd_shocks) refers to main.o(i.Store_System_Para) for Store_System_Para
    smscmd.o(i.Cmd_shocks) refers to main.o(i.sys_Init) for sys_Init
    smscmd.o(i.Cmd_shocks) refers to strncat.o(.text) for strncat
    smscmd.o(i.Cmd_shocks) refers to strlen.o(.text) for strlen
    smscmd.o(i.Cmd_shocks) refers to gsm.o(i.SendMsg) for SendMsg
    smscmd.o(i.Cmd_shocks) refers to main.o(.bss) for g_ucSim900Buff
    smscmd.o(i.Cmd_shocks) refers to main.o(.constdata) for acceleration_para
    smscmd.o(i.analysis_sms) refers to strstr.o(.text) for strstr
    smscmd.o(i.analysis_sms) refers to stm32f0xx_iwdg.o(i.IWDG_ReloadCounter) for IWDG_ReloadCounter
    smscmd.o(i.analysis_sms) refers to smscmd.o(i.Cmd_SETM) for Cmd_SETM
    smscmd.o(i.analysis_sms) refers to i2c_lsm330.o(i.delayms) for delayms
    smscmd.o(i.analysis_sms) refers to smscmd.o(i.Cmd_CXCS) for Cmd_CXCS
    smscmd.o(i.analysis_sms) refers to main.o(i.check_sleep_state) for check_sleep_state
    smscmd.o(i.analysis_sms) refers to led.o(i.GSM_reset) for GSM_reset
    smscmd.o(i.analysis_sms) refers to gsm.o(i.GetGPRSStatus) for GetGPRSStatus
    smscmd.o(i.analysis_sms) refers to gsm.o(i.StartGPRS) for StartGPRS
    smscmd.o(i.analysis_sms) refers to led.o(i.GSM_Power) for GSM_Power
    smscmd.o(i.analysis_sms) refers to smscmd.o(i.Cmd_CXZD) for Cmd_CXZD
    smscmd.o(i.analysis_sms) refers to smscmd.o(i.cmd_CSKMG) for cmd_CSKMG
    smscmd.o(i.analysis_sms) refers to memcpya.o(.text) for __aeabi_memcpy
    smscmd.o(i.analysis_sms) refers to gsm.o(i.ClrGSMBuff) for ClrGSMBuff
    smscmd.o(i.analysis_sms) refers to smscmd.o(.data) for pStart
    smscmd.o(i.analysis_sms) refers to main.o(.bss) for system_para
    smscmd.o(i.analysis_sms) refers to gsm.o(.data) for SMS_StartGSM_Flag
    smscmd.o(i.analysis_sms) refers to smscmd.o(.bss) for smsdatareg
    smscmd.o(i.cmd_CSKMG) refers to usart1.o(i.ddi_uart_Write) for ddi_uart_Write
    smscmd.o(i.cmd_CSKMG) refers to gsm.o(i.WaitGSMOK1) for WaitGSMOK1
    smscmd.o(i.cmd_CSKMG) refers to i2c_lsm330.o(i.delayms) for delayms
    smscmd.o(i.cmd_CSKMG) refers to led.o(i.set_GPS_POWERON) for set_GPS_POWERON
    smscmd.o(i.cmd_CSKMG) refers to gsm.o(i.SendMsg) for SendMsg
    smscmd.o(i.cmd_CSKMG) refers to main.o(i.delayms_nodog) for delayms_nodog
    smscmd.o(i.cmd_CSKMG) refers to stm32f0xx_gpio.o(i.GPIO_SetBits) for GPIO_SetBits
    smscmd.o(i.cmd_CSKMG) refers to stm32f0xx_gpio.o(i.GPIO_ResetBits) for GPIO_ResetBits
    smscmd.o(i.cmd_CSKMG) refers to usart1.o(i.ddi_uart1_init) for ddi_uart1_init
    smscmd.o(i.cmd_CSKMG) refers to usart1.o(.bss) for UART1_ctl_t
    smscmd.o(i.cmd_CSKMG) refers to main.o(.bss) for g_ucCurrentNum
    smscmd.o(i.setSMS) refers to memseta.o(.text) for __aeabi_memclr
    smscmd.o(i.setSMS) refers to strlen.o(.text) for strlen
    smscmd.o(i.setSMS) refers to memcpya.o(.text) for __aeabi_memcpy
    smscmd.o(i.setSMS) refers to smscmd.o(i.__ARM_common_switch8) for __ARM_common_switch8
    smscmd.o(i.setSMS) refers to smscmd.o(i.Cmd_Position) for Cmd_Position
    smscmd.o(i.setSMS) refers to smscmd.o(i.Cmd_Initial) for Cmd_Initial
    smscmd.o(i.setSMS) refers to smscmd.o(i.Cmd_NewNum) for Cmd_NewNum
    smscmd.o(i.setSMS) refers to smscmd.o(i.Cmd_ShowRegNum) for Cmd_ShowRegNum
    smscmd.o(i.setSMS) refers to smscmd.o(i.Cmd_SetPsw) for Cmd_SetPsw
    smscmd.o(i.setSMS) refers to smscmd.o(i.Cmd_SetNET) for Cmd_SetNET
    smscmd.o(i.setSMS) refers to smscmd.o(i.Cmd_IMEI) for Cmd_IMEI
    smscmd.o(i.setSMS) refers to smscmd.o(i.Cmd_DeviceInfo) for Cmd_DeviceInfo
    smscmd.o(i.setSMS) refers to smscmd.o(i.Cmd_SpeedLimit) for Cmd_SpeedLimit
    smscmd.o(i.setSMS) refers to smscmd.o(i.Cmd_CellID) for Cmd_CellID
    smscmd.o(i.setSMS) refers to smscmd.o(i.Cmd_Setmid) for Cmd_Setmid
    smscmd.o(i.setSMS) refers to smscmd.o(i.Cmd_SetMode) for Cmd_SetMode
    smscmd.o(i.setSMS) refers to smscmd.o(i.Cmd_SetWakeTime) for Cmd_SetWakeTime
    smscmd.o(i.setSMS) refers to smscmd.o(i.Cmd_ACC) for Cmd_ACC
    smscmd.o(i.setSMS) refers to smscmd.o(i.Cmd_ENAUTOSMS) for Cmd_ENAUTOSMS
    smscmd.o(i.setSMS) refers to smscmd.o(i.Cmd_Duration) for Cmd_Duration
    smscmd.o(i.setSMS) refers to smscmd.o(i.Cmd_SleepTime) for Cmd_SleepTime
    smscmd.o(i.setSMS) refers to smscmd.o(i.Cmd_relay) for Cmd_relay
    smscmd.o(i.setSMS) refers to smscmd.o(i.Cmd_shocks) for Cmd_shocks
    smscmd.o(i.setSMS) refers to smscmd.o(.bss) for smsdatareg
    smscmd.o(i.setSMS) refers to main.o(.bss) for g_ucSim900Buff
    smscmd.o(i.setSMS) refers to main.o(.data) for chinesesmsflag
    smscmd.o(i.sub_cxcs) refers to memseta.o(.text) for __aeabi_memclr
    smscmd.o(i.sub_cxcs) refers to strncat.o(.text) for strncat
    smscmd.o(i.sub_cxcs) refers to strlen.o(.text) for strlen
    smscmd.o(i.sub_cxcs) refers to gsm.o(i.hextoascii) for hextoascii
    smscmd.o(i.sub_cxcs) refers to uread4.o(.text) for __aeabi_uread4
    smscmd.o(i.sub_cxcs) refers to idiv.o(.text) for __aeabi_idivmod
    smscmd.o(i.sub_cxcs) refers to gsm.o(i.hex2BCD_ASCII) for hex2BCD_ASCII
    smscmd.o(i.sub_cxcs) refers to main.o(.bss) for system_para
    smscmd.o(i.sub_cxcs) refers to smscmd.o(.constdata) for zero_ascii
    stm32f0xx_it.o(i.EXTI0_1_IRQHandler) refers to stm32f0xx_exti.o(i.EXTI_GetITStatus) for EXTI_GetITStatus
    stm32f0xx_it.o(i.EXTI0_1_IRQHandler) refers to stm32f0xx_exti.o(i.EXTI_ClearITPendingBit) for EXTI_ClearITPendingBit
    stm32f0xx_it.o(i.EXTI4_15_IRQHandler) refers to stm32f0xx_exti.o(i.EXTI_GetITStatus) for EXTI_GetITStatus
    stm32f0xx_it.o(i.EXTI4_15_IRQHandler) refers to stm32f0xx_exti.o(i.EXTI_ClearITPendingBit) for EXTI_ClearITPendingBit
    stm32f0xx_it.o(i.EXTI4_15_IRQHandler) refers to led.o(i.get_ALARM_status) for get_ALARM_status
    stm32f0xx_it.o(i.EXTI4_15_IRQHandler) refers to led.o(i.get_ACC_CHECK_status) for get_ACC_CHECK_status
    stm32f0xx_it.o(i.EXTI4_15_IRQHandler) refers to led.o(i.get_GSM_RING_status) for get_GSM_RING_status
    stm32f0xx_it.o(i.EXTI4_15_IRQHandler) refers to stm32f0xx_it.o(.data) for flag_start_duage_g_ucAlarm
    stm32f0xx_it.o(i.EXTI4_15_IRQHandler) refers to main.o(.data) for entersleepflag
    stm32f0xx_it.o(i.EXTI4_15_IRQHandler) refers to main.o(.bss) for system_para
    stm32f0xx_it.o(i.EXTI4_15_IRQHandler) refers to gsm.o(.data) for dial_status
    stm32f0xx_it.o(i.HardFault_Handler) refers to stm32f0xx_gpio.o(i.GPIO_SetBits) for GPIO_SetBits
    stm32f0xx_it.o(i.HardFault_Handler) refers to stm32f0xx_gpio.o(i.GPIO_ResetBits) for GPIO_ResetBits
    stm32f0xx_it.o(i.RTC_IRQHandler) refers to stm32f0xx_rtc.o(i.RTC_GetITStatus) for RTC_GetITStatus
    stm32f0xx_it.o(i.RTC_IRQHandler) refers to stm32f0xx_rtc.o(i.RTC_ClearITPendingBit) for RTC_ClearITPendingBit
    stm32f0xx_it.o(i.RTC_IRQHandler) refers to stm32f0xx_exti.o(i.EXTI_ClearITPendingBit) for EXTI_ClearITPendingBit
    stm32f0xx_it.o(i.RTC_IRQHandler) refers to stm32f0xx_it.o(.data) for RTC_ALARM_timer
    stm32f0xx_it.o(i.SysTick_Handler) refers to uread4.o(.text) for __aeabi_uread4
    stm32f0xx_it.o(i.SysTick_Handler) refers to uwrite4.o(.text) for __aeabi_uwrite4
    stm32f0xx_it.o(i.SysTick_Handler) refers to stm32f0xx_it.o(.data) for tencounter
    stm32f0xx_it.o(i.SysTick_Handler) refers to main.o(.data) for lowbattcount
    stm32f0xx_it.o(i.SysTick_Handler) refers to main.o(.bss) for system_para
    stm32f0xx_it.o(i.SysTick_Handler) refers to gprs.o(.data) for T_P_time
    stm32f0xx_it.o(i.SysTick_Handler) refers to gps.o(.data) for dingwei_flag
    stm32f0xx_it.o(i.TIM3_IRQHandler) refers to stm32f0xx_tim.o(i.TIM_GetITStatus) for TIM_GetITStatus
    stm32f0xx_it.o(i.TIM3_IRQHandler) refers to stm32f0xx_tim.o(i.TIM_ClearITPendingBit) for TIM_ClearITPendingBit
    stm32f0xx_it.o(i.TIM3_IRQHandler) refers to stm32f0xx_tim.o(i.TIM_GetCapture3) for TIM_GetCapture3
    stm32f0xx_it.o(i.TIM3_IRQHandler) refers to stm32f0xx_tim.o(i.TIM_SetCompare3) for TIM_SetCompare3
    stm32f0xx_it.o(i.TIM3_IRQHandler) refers to led.o(i.get_GSM_RING_status) for get_GSM_RING_status
    stm32f0xx_it.o(i.TIM3_IRQHandler) refers to led.o(i.get_ALARM_status) for get_ALARM_status
    stm32f0xx_it.o(i.TIM3_IRQHandler) refers to uidiv.o(.text) for __aeabi_uidivmod
    stm32f0xx_it.o(i.TIM3_IRQHandler) refers to led.o(i.get_ACC_CHECK_status) for get_ACC_CHECK_status
    stm32f0xx_it.o(i.TIM3_IRQHandler) refers to stm32f0xx_it.o(.data) for capture
    stm32f0xx_it.o(i.TIM3_IRQHandler) refers to main.o(.data) for CCR3_Val
    stm32f0xx_it.o(i.TIM3_IRQHandler) refers to i2c_lsm330.o(.data) for TimingDelay
    stm32f0xx_it.o(i.TIM3_IRQHandler) refers to usart1.o(.data) for proGPRSCmdFlag
    stm32f0xx_it.o(i.TIM3_IRQHandler) refers to main.o(.bss) for system_para
    system_stm32f0xx.o(i.SystemCoreClockUpdate) refers to uidiv.o(.text) for __aeabi_uidivmod
    system_stm32f0xx.o(i.SystemCoreClockUpdate) refers to system_stm32f0xx.o(.data) for SystemCoreClock
    system_stm32f0xx.o(i.SystemInit) refers to system_stm32f0xx.o(i.SetSysClock) for SetSysClock
    gprs.o(i.Deal_GSM_LAC) refers to memcpya.o(.text) for __aeabi_memcpy4
    gprs.o(i.Deal_GSM_LAC) refers to gprs.o(i.get_ID) for get_ID
    gprs.o(i.Deal_GSM_LAC) refers to gprs.o(i.RTC2Position_time) for RTC2Position_time
    gprs.o(i.Deal_GSM_LAC) refers to gprs.o(.data) for Lac_g
    gprs.o(i.Deal_GSM_LAC) refers to main.o(.data) for MobileCompany
    gprs.o(i.GPS_Deal) refers to memcpya.o(.text) for __aeabi_memcpy4
    gprs.o(i.GPS_Deal) refers to stm32f0xx_iwdg.o(i.IWDG_ReloadCounter) for IWDG_ReloadCounter
    gprs.o(i.GPS_Deal) refers to gprs.o(i.asciitolatitude) for asciitolatitude
    gprs.o(i.GPS_Deal) refers to strstr.o(.text) for strstr
    gprs.o(i.GPS_Deal) refers to gprs.o(i.asciitospeed) for asciitospeed
    gprs.o(i.GPS_Deal) refers to gprs.o(i.asciitodirection) for asciitodirection
    gprs.o(i.GPS_Deal) refers to gprs.o(i.asciitodate) for asciitodate
    gprs.o(i.GPS_Deal) refers to gprs.o(i.RTC_Get) for RTC_Get
    gprs.o(i.GPS_Deal) refers to gprs.o(i.RTC2Position_time) for RTC2Position_time
    gprs.o(i.GPS_Deal) refers to gps.o(.data) for dingweied_flag
    gprs.o(i.GPS_Deal) refers to gps.o(.bss) for gps_ascii
    gprs.o(i.GPS_Deal) refers to gprs.o(.data) for i
    gprs.o(i.GPS_Deal) refers to stm32f0xx_it.o(.data) for secondcounter
    gprs.o(i.Is_Leap_Year) refers to idiv.o(.text) for __aeabi_idivmod
    gprs.o(i.RTC2Position_time) refers to stm32f0xx_rtc.o(i.RTC_ByteToBcd2) for RTC_ByteToBcd2
    gprs.o(i.RTC2Position_time) refers to gprs.o(.bss) for timer
    gprs.o(i.RTC_Get) refers to stm32f0xx_rtc.o(i.RTC_Bcd2ToByte) for RTC_Bcd2ToByte
    gprs.o(i.RTC_Get) refers to gprs.o(i.RTC_Set) for RTC_Set
    gprs.o(i.RTC_Get) refers to uidiv.o(.text) for __aeabi_uidivmod
    gprs.o(i.RTC_Get) refers to gprs.o(i.Is_Leap_Year) for Is_Leap_Year
    gprs.o(i.RTC_Get) refers to gprs.o(.data) for time_gps_rtc
    gprs.o(i.RTC_Get) refers to gprs.o(.bss) for timer
    gprs.o(i.RTC_Get) refers to gprs.o(.constdata) for mon_table
    gprs.o(i.RTC_Set) refers to gprs.o(i.Is_Leap_Year) for Is_Leap_Year
    gprs.o(i.RTC_Set) refers to gprs.o(.constdata) for mon_table
    gprs.o(i.RTC_Set) refers to stm32f0xx_it.o(.data) for secondcounter
    gprs.o(i.RTC_Set) refers to gprs.o(.data) for backsecondforRTC
    gprs.o(i.SendGprs_Index) refers to gsm.o(i.UDPSendData_Index) for UDPSendData_Index
    gprs.o(i.SendGprs_Index) refers to i2c_lsm330.o(i.delayms) for delayms
    gprs.o(i.SendGprs_Index) refers to gsm.o(i.GetGPRSStatus) for GetGPRSStatus
    gprs.o(i.SendGprs_Index) refers to stm32f0xx_gpio.o(i.GPIO_SetBits) for GPIO_SetBits
    gprs.o(i.SendGprs_Index) refers to gsm.o(i.StartGPRS) for StartGPRS
    gprs.o(i.SendGprs_Index) refers to led.o(i.GSM_reset) for GSM_reset
    gprs.o(i.SendGprs_Index) refers to usart1.o(i.ddi_uart_Write) for ddi_uart_Write
    gprs.o(i.SendGprs_Index) refers to led.o(i.GSM_Power) for GSM_Power
    gprs.o(i.SendGprs_Index) refers to strlen.o(.text) for strlen
    gprs.o(i.SendGprs_Index) refers to memseta.o(.text) for __aeabi_memclr
    gprs.o(i.SendGprs_Index) refers to main.o(.bss) for system_para
    gprs.o(i.SendGprs_Index) refers to main.o(.data) for g_ucACCFlag
    gprs.o(i.SendGprs_Index) refers to gsm.o(.data) for dial_status
    gprs.o(i.SendGprs_Index) refers to usart1.o(.bss) for UART1_ctl_t
    gprs.o(i.SetGPRS) refers to gprs.o(i.analysis) for analysis
    gprs.o(i.SetGPRS) refers to memseta.o(.text) for __aeabi_memclr
    gprs.o(i.SetGPRS) refers to gprs.o(i.cmd_GENERAL_RESPONSION) for cmd_GENERAL_RESPONSION
    gprs.o(i.SetGPRS) refers to memcpya.o(.text) for __aeabi_memcpy
    gprs.o(i.SetGPRS) refers to gprs.o(i.swapHLchar) for swapHLchar
    gprs.o(i.SetGPRS) refers to gprs.o(i.cmd_SET_TERMINAL_PARAMETER) for cmd_SET_TERMINAL_PARAMETER
    gprs.o(i.SetGPRS) refers to gprs.o(i.cmd_INQUIRE_TERMINAL_PARAMETER) for cmd_INQUIRE_TERMINAL_PARAMETER
    gprs.o(i.SetGPRS) refers to gprs.o(i.cmd_SET_GPRS_SERVICER) for cmd_SET_GPRS_SERVICER
    gprs.o(i.SetGPRS) refers to gprs.o(i.cmd_INQUIRE_ONE_TERMINAL_PARAMETER) for cmd_INQUIRE_ONE_TERMINAL_PARAMETER
    gprs.o(i.SetGPRS) refers to gprs.o(i.cmd_INQUIRE_POSITION) for cmd_INQUIRE_POSITION
    gprs.o(i.SetGPRS) refers to gprs.o(i.cmd_CHINESE_POSITION_rece) for cmd_CHINESE_POSITION_rece
    gprs.o(i.SetGPRS) refers to gprs.o(i.cmd_OIL_BREAK) for cmd_OIL_BREAK
    gprs.o(i.SetGPRS) refers to gprs.o(i.cmd_TEMPORARY_POSTION) for cmd_TEMPORARY_POSTION
    gprs.o(i.SetGPRS) refers to usart1.o(.data) for GPRSCmdCount
    gprs.o(i.SetGPRS) refers to main.o(.bss) for g_ucGPRSCmdBuff
    gprs.o(i.SetGPRS) refers to main.o(.data) for g_ucGPRSCmdMissionFlag
    gprs.o(i.SetGPRS) refers to gprs.o(.data) for flowwater_form_table
    gprs.o(i.asciitodate) refers to gsm.o(i.asciitohex) for asciitohex
    gprs.o(i.asciitodate) refers to gsm.o(i.hex2BCD_ASCII1) for hex2BCD_ASCII1
    gprs.o(i.asciitodate) refers to idiv.o(.text) for __aeabi_idivmod
    gprs.o(i.asciitodirection) refers to gsm.o(i.asciitohex) for asciitohex
    gprs.o(i.asciitolatitude) refers to strstr.o(.text) for strstr
    gprs.o(i.asciitolatitude) refers to gsm.o(i.asciitohex) for asciitohex
    gprs.o(i.asciitolatitude) refers to idiv.o(.text) for __aeabi_idivmod
    gprs.o(i.asciitolongitude) refers to gsm.o(i.asciitohex) for asciitohex
    gprs.o(i.asciitolongitude) refers to uidiv.o(.text) for __aeabi_uidivmod
    gprs.o(i.asciitospeed) refers to uidiv.o(.text) for __aeabi_uidivmod
    gprs.o(i.cmd_0002) refers to memcpya.o(.text) for __aeabi_memcpy
    gprs.o(i.cmd_0002) refers to gprs.o(i.swapHLchar) for swapHLchar
    gprs.o(i.cmd_0002) refers to memseta.o(.text) for __aeabi_memclr
    gprs.o(i.cmd_0002) refers to gprs.o(i.constructor) for constructor
    gprs.o(i.cmd_0002) refers to gprs.o(i.SendGprs_Index) for SendGprs_Index
    gprs.o(i.cmd_0002) refers to gprs.o(.data) for flowwater
    gprs.o(i.cmd_0002) refers to main.o(.bss) for system_para
    gprs.o(i.cmd_0200) refers to gprs.o(i.send_location_gprs) for send_location_gprs
    gprs.o(i.cmd_0200) refers to main.o(.data) for gps_gate
    gprs.o(i.cmd_0200) refers to gprs.o(.data) for ACC_GPS_flag
    gprs.o(i.cmd_0200) refers to gps.o(.data) for dingwei_flag
    gprs.o(i.cmd_CHINESE_POSITION_rece) refers to gprs.o(i.swapHLchar) for swapHLchar
    gprs.o(i.cmd_CHINESE_POSITION_rece) refers to memseta.o(.text) for __aeabi_memclr
    gprs.o(i.cmd_CHINESE_POSITION_rece) refers to gsm.o(i.hextoascii) for hextoascii
    gprs.o(i.cmd_CHINESE_POSITION_rece) refers to memcpya.o(.text) for __aeabi_memcpy
    gprs.o(i.cmd_CHINESE_POSITION_rece) refers to gsm.o(i.send_chinese_sms) for send_chinese_sms
    gprs.o(i.cmd_CHINESE_POSITION_rece) refers to main.o(.bss) for g_ucGPRSCmdBuff
    gprs.o(i.cmd_CHINESE_POSITION_rece) refers to usart1.o(.bss) for UART1_tbuf
    gprs.o(i.cmd_CHINESE_POSITION_rece) refers to main.o(.data) for chinesesmsflag
    gprs.o(i.cmd_GENERAL_RESPONSION) refers to memcpya.o(.text) for __aeabi_memcpy
    gprs.o(i.cmd_GENERAL_RESPONSION) refers to gprs.o(i.swapHLchar) for swapHLchar
    gprs.o(i.cmd_GENERAL_RESPONSION) refers to memseta.o(.text) for __aeabi_memclr
    gprs.o(i.cmd_GENERAL_RESPONSION) refers to gprs.o(i.constructor) for constructor
    gprs.o(i.cmd_GENERAL_RESPONSION) refers to gprs.o(i.SendGprs_Index) for SendGprs_Index
    gprs.o(i.cmd_GENERAL_RESPONSION) refers to gprs.o(.data) for flowwater
    gprs.o(i.cmd_GENERAL_RESPONSION) refers to main.o(.bss) for system_para
    gprs.o(i.cmd_INQUIRE_CHINESE_POSITION) refers to memcpya.o(.text) for __aeabi_memcpy
    gprs.o(i.cmd_INQUIRE_CHINESE_POSITION) refers to gsm.o(i.GetAvailableGPSInfoV_N) for GetAvailableGPSInfoV_N
    gprs.o(i.cmd_INQUIRE_CHINESE_POSITION) refers to gprs.o(i.uploadLAC_InquireChinese) for uploadLAC_InquireChinese
    gprs.o(i.cmd_INQUIRE_CHINESE_POSITION) refers to gprs.o(i.swapHLchar) for swapHLchar
    gprs.o(i.cmd_INQUIRE_CHINESE_POSITION) refers to memseta.o(.text) for __aeabi_memclr
    gprs.o(i.cmd_INQUIRE_CHINESE_POSITION) refers to strstr.o(.text) for strstr
    gprs.o(i.cmd_INQUIRE_CHINESE_POSITION) refers to gprs.o(i.asciitolatitude) for asciitolatitude
    gprs.o(i.cmd_INQUIRE_CHINESE_POSITION) refers to gprs.o(i.constructor) for constructor
    gprs.o(i.cmd_INQUIRE_CHINESE_POSITION) refers to gprs.o(i.SendGprs_Index) for SendGprs_Index
    gprs.o(i.cmd_INQUIRE_CHINESE_POSITION) refers to gprs.o(.data) for flowwater
    gprs.o(i.cmd_INQUIRE_CHINESE_POSITION) refers to main.o(.bss) for system_para
    gprs.o(i.cmd_INQUIRE_CHINESE_POSITION) refers to main.o(.data) for gps_gate
    gprs.o(i.cmd_INQUIRE_CHINESE_POSITION) refers to gps.o(.data) for dingwei_flag
    gprs.o(i.cmd_INQUIRE_ONE_TERMINAL_PARAMETER) refers to memcpya.o(.text) for __aeabi_memcpy
    gprs.o(i.cmd_INQUIRE_ONE_TERMINAL_PARAMETER) refers to memseta.o(.text) for __aeabi_memclr
    gprs.o(i.cmd_INQUIRE_ONE_TERMINAL_PARAMETER) refers to gprs.o(i.swapHLchar) for swapHLchar
    gprs.o(i.cmd_INQUIRE_ONE_TERMINAL_PARAMETER) refers to uread4.o(.text) for __aeabi_uread4
    gprs.o(i.cmd_INQUIRE_ONE_TERMINAL_PARAMETER) refers to strlen.o(.text) for strlen
    gprs.o(i.cmd_INQUIRE_ONE_TERMINAL_PARAMETER) refers to gprs.o(i.porttou32) for porttou32
    gprs.o(i.cmd_INQUIRE_ONE_TERMINAL_PARAMETER) refers to gprs.o(.data) for flowwater
    gprs.o(i.cmd_INQUIRE_ONE_TERMINAL_PARAMETER) refers to main.o(.bss) for system_para
    gprs.o(i.cmd_INQUIRE_ONE_TERMINAL_PARAMETER) refers to gprs.o(i.constructor) for constructor
    gprs.o(i.cmd_INQUIRE_ONE_TERMINAL_PARAMETER) refers to gprs.o(i.SendGprs_Index) for SendGprs_Index
    gprs.o(i.cmd_INQUIRE_POSITION) refers to gprs.o(i.send_location_gprs) for send_location_gprs
    gprs.o(i.cmd_INQUIRE_POSITION) refers to main.o(.data) for gps_gate
    gprs.o(i.cmd_INQUIRE_POSITION) refers to gps.o(.data) for dingwei_flag
    gprs.o(i.cmd_INQUIRE_POSITION) refers to gprs.o(.data) for send_gps_gsm_flag
    gprs.o(i.cmd_INQUIRE_TERMINAL_PARAMETER) refers to memcpya.o(.text) for __aeabi_memcpy
    gprs.o(i.cmd_INQUIRE_TERMINAL_PARAMETER) refers to memseta.o(.text) for __aeabi_memclr
    gprs.o(i.cmd_INQUIRE_TERMINAL_PARAMETER) refers to gprs.o(i.swapHLchar) for swapHLchar
    gprs.o(i.cmd_INQUIRE_TERMINAL_PARAMETER) refers to uread4.o(.text) for __aeabi_uread4
    gprs.o(i.cmd_INQUIRE_TERMINAL_PARAMETER) refers to strlen.o(.text) for strlen
    gprs.o(i.cmd_INQUIRE_TERMINAL_PARAMETER) refers to gprs.o(i.porttou32) for porttou32
    gprs.o(i.cmd_INQUIRE_TERMINAL_PARAMETER) refers to gprs.o(i.constructor) for constructor
    gprs.o(i.cmd_INQUIRE_TERMINAL_PARAMETER) refers to gprs.o(i.SendGprs_Index) for SendGprs_Index
    gprs.o(i.cmd_INQUIRE_TERMINAL_PARAMETER) refers to gprs.o(.data) for flowwater
    gprs.o(i.cmd_INQUIRE_TERMINAL_PARAMETER) refers to main.o(.bss) for system_para
    gprs.o(i.cmd_OIL_BREAK) refers to main.o(i.Store_System_Para) for Store_System_Para
    gprs.o(i.cmd_OIL_BREAK) refers to i2c_lsm330.o(i.delayms) for delayms
    gprs.o(i.cmd_OIL_BREAK) refers to led.o(i.set_OIL_BREAK) for set_OIL_BREAK
    gprs.o(i.cmd_OIL_BREAK) refers to gsm.o(i.GetAvailableGPSInfoV_N) for GetAvailableGPSInfoV_N
    gprs.o(i.cmd_OIL_BREAK) refers to gprs.o(i.send_location_gprs) for send_location_gprs
    gprs.o(i.cmd_OIL_BREAK) refers to main.o(.bss) for g_ucGPRSCmdBuff
    gprs.o(i.cmd_OIL_BREAK) refers to gprs.o(.data) for ptmp
    gprs.o(i.cmd_OIL_BREAK) refers to main.o(.data) for gps_gate
    gprs.o(i.cmd_OIL_BREAK) refers to gps.o(.data) for dingwei_flag
    gprs.o(i.cmd_SET_TERMINAL_PARAMETER) refers to memcpya.o(.text) for __aeabi_memcpy
    gprs.o(i.cmd_SET_TERMINAL_PARAMETER) refers to gprs.o(i.swapHLchar) for swapHLchar
    gprs.o(i.cmd_SET_TERMINAL_PARAMETER) refers to uread4.o(.text) for __aeabi_uread4
    gprs.o(i.cmd_SET_TERMINAL_PARAMETER) refers to uwrite4.o(.text) for __aeabi_uwrite4
    gprs.o(i.cmd_SET_TERMINAL_PARAMETER) refers to memseta.o(.text) for __aeabi_memclr
    gprs.o(i.cmd_SET_TERMINAL_PARAMETER) refers to gprs.o(i.u32toport) for u32toport
    gprs.o(i.cmd_SET_TERMINAL_PARAMETER) refers to main.o(i.Store_System_Para) for Store_System_Para
    gprs.o(i.cmd_SET_TERMINAL_PARAMETER) refers to gprs.o(i.cmd_GENERAL_RESPONSION) for cmd_GENERAL_RESPONSION
    gprs.o(i.cmd_SET_TERMINAL_PARAMETER) refers to i2c_lsm330.o(i.delayms) for delayms
    gprs.o(i.cmd_SET_TERMINAL_PARAMETER) refers to led.o(i.GSM_reset) for GSM_reset
    gprs.o(i.cmd_SET_TERMINAL_PARAMETER) refers to gsm.o(i.GetGPRSStatus) for GetGPRSStatus
    gprs.o(i.cmd_SET_TERMINAL_PARAMETER) refers to gsm.o(i.StartGPRS) for StartGPRS
    gprs.o(i.cmd_SET_TERMINAL_PARAMETER) refers to led.o(i.GSM_Power) for GSM_Power
    gprs.o(i.cmd_SET_TERMINAL_PARAMETER) refers to main.o(.bss) for g_ucGPRSCmdBuff
    gprs.o(i.cmd_SET_TERMINAL_PARAMETER) refers to main.o(.data) for g_ucGotoSleepFlag
    gprs.o(i.cmd_SET_TERMINAL_PARAMETER) refers to gsm.o(.data) for CPIN_READY_flag
    gprs.o(i.cmd_TEMPORARY_POSTION) refers to gprs.o(i.cmd_GENERAL_RESPONSION) for cmd_GENERAL_RESPONSION
    gprs.o(i.cmd_TEMPORARY_POSTION) refers to main.o(.bss) for g_ucGPRSCmdBuff
    gprs.o(i.cmd_TEMPORARY_POSTION) refers to gprs.o(.data) for T_P_g_usGPRSUpLoadAternationTime
    gprs.o(i.cmd_TEMPORARY_POSTION) refers to main.o(.data) for gps_gate
    gprs.o(i.constructor) refers to memseta.o(.text) for __aeabi_memclr
    gprs.o(i.constructor) refers to memcpya.o(.text) for __aeabi_memcpy
    gprs.o(i.get_ID) refers to usart1.o(i.ddi_uart_Write) for ddi_uart_Write
    gprs.o(i.get_ID) refers to gsm.o(i.WaitGSMOK1) for WaitGSMOK1
    gprs.o(i.get_ID) refers to stm32f0xx_iwdg.o(i.IWDG_ReloadCounter) for IWDG_ReloadCounter
    gprs.o(i.get_ID) refers to strstr.o(.text) for strstr
    gprs.o(i.get_ID) refers to memcpya.o(.text) for __aeabi_memcpy
    gprs.o(i.get_ID) refers to usart1.o(.bss) for UART1_ctl_t
    gprs.o(i.get_ID) refers to main.o(.bss) for g_ucSim900Buff
    gprs.o(i.get_ID) refers to gprs.o(.data) for Lac_g
    gprs.o(i.get_lac_gps) refers to stm32f0xx_iwdg.o(i.IWDG_ReloadCounter) for IWDG_ReloadCounter
    gprs.o(i.get_lac_gps) refers to usart1.o(i.ddi_uart_Write) for ddi_uart_Write
    gprs.o(i.get_lac_gps) refers to gsm.o(i.WaitGSMOK2) for WaitGSMOK2
    gprs.o(i.get_lac_gps) refers to strstr.o(.text) for strstr
    gprs.o(i.get_lac_gps) refers to memcpya.o(.text) for __aeabi_memcpy
    gprs.o(i.get_lac_gps) refers to usart1.o(.data) for proGPRSCmdFlag
    gprs.o(i.get_lac_gps) refers to main.o(.data) for g_ucSim900Status
    gprs.o(i.get_lac_gps) refers to usart1.o(.bss) for UART1_ctl_t
    gprs.o(i.get_lac_gps) refers to main.o(.bss) for g_ucSim900Buff
    gprs.o(i.get_lac_gps) refers to gprs.o(.data) for get_GC65_LL_Flag
    gprs.o(i.send_location_gprs) refers to uldiv.o(.text) for __aeabi_uldivmod
    gprs.o(i.send_location_gprs) refers to gprs.o(i.GPS_Deal) for GPS_Deal
    gprs.o(i.send_location_gprs) refers to memcpya.o(.text) for __aeabi_memcpy4
    gprs.o(i.send_location_gprs) refers to gprs.o(i.Deal_GSM_LAC) for Deal_GSM_LAC
    gprs.o(i.send_location_gprs) refers to uread4.o(.text) for __aeabi_uread4
    gprs.o(i.send_location_gprs) refers to idiv.o(.text) for __aeabi_idivmod
    gprs.o(i.send_location_gprs) refers to memseta.o(.text) for __aeabi_memclr
    gprs.o(i.send_location_gprs) refers to gprs.o(i.RTC2Position_time) for RTC2Position_time
    gprs.o(i.send_location_gprs) refers to gsm.o(i.BatteryStatusGet) for BatteryStatusGet
    gprs.o(i.send_location_gprs) refers to gprs.o(i.swapHLchar) for swapHLchar
    gprs.o(i.send_location_gprs) refers to gprs.o(i.constructor) for constructor
    gprs.o(i.send_location_gprs) refers to main.o(.bss) for wzw_mileage
    gprs.o(i.send_location_gprs) refers to gprs.o(.data) for send_gps_gsm_flag
    gprs.o(i.send_location_gprs) refers to main.o(.data) for g_usCurrentSpeed
    gprs.o(i.send_location_gprs) refers to gps.o(.data) for dingwei_flag
    gprs.o(i.send_location_gprs) refers to gprs.o(i.SendGprs_Index) for SendGprs_Index
    gprs.o(i.test_a_gps) refers to memseta.o(.text) for __aeabi_memclr
    gprs.o(i.test_a_gps) refers to memcpya.o(.text) for __aeabi_memcpy
    gprs.o(i.test_a_gps) refers to gprs.o(i.get_lac_gps) for get_lac_gps
    gprs.o(i.test_a_gps) refers to strcat.o(.text) for strcat
    gprs.o(i.test_a_gps) refers to gps.o(i.GetAvailableGPSInfoV) for GetAvailableGPSInfoV
    gprs.o(i.test_a_gps) refers to strlen.o(.text) for strlen
    gprs.o(i.test_a_gps) refers to gprs.o(i.SendGprs_Index) for SendGprs_Index
    gprs.o(i.test_a_gps) refers to i2c_lsm330.o(i.delayms) for delayms
    gprs.o(i.test_a_gps) refers to usart1.o(i.ddi_uart_Write) for ddi_uart_Write
    gprs.o(i.test_a_gps) refers to gps.o(.data) for GPS_module
    gprs.o(i.test_a_gps) refers to main.o(.bss) for g_ucGPRSDataBuff
    gprs.o(i.test_a_gps) refers to gprs.o(.data) for get_GC65_LL_Flag
    gprs.o(i.test_a_gps) refers to main.o(.data) for bit_flag
    gprs.o(i.test_a_gps) refers to usart1.o(.data) for fB5
    gprs.o(i.test_a_gps) refers to usart1.o(.bss) for UART2_ctl_t
    gprs.o(i.u32toport) refers to uidiv.o(.text) for __aeabi_uidivmod
    gprs.o(i.uploadLAC_InquireChinese) refers to gprs.o(i.get_ID) for get_ID
    gprs.o(i.uploadLAC_InquireChinese) refers to memcpya.o(.text) for __aeabi_memcpy
    gprs.o(i.uploadLAC_InquireChinese) refers to gprs.o(i.swapHLchar) for swapHLchar
    gprs.o(i.uploadLAC_InquireChinese) refers to memseta.o(.text) for __aeabi_memclr
    gprs.o(i.uploadLAC_InquireChinese) refers to gprs.o(i.constructor) for constructor
    gprs.o(i.uploadLAC_InquireChinese) refers to gprs.o(i.SendGprs_Index) for SendGprs_Index
    gprs.o(i.uploadLAC_InquireChinese) refers to gprs.o(.data) for Lac_g
    gprs.o(i.uploadLAC_InquireChinese) refers to main.o(.bss) for system_para
    gprs.o(i.uploadLAC_InquireChinese) refers to main.o(.data) for MobileCompany
    gps.o(i.GetAvailableGPSInfoV) refers to strstr.o(.text) for strstr
    gps.o(i.GetAvailableGPSInfoV) refers to stm32f0xx_iwdg.o(i.IWDG_ReloadCounter) for IWDG_ReloadCounter
    gps.o(i.GetAvailableGPSInfoV) refers to gps.o(i.CheckSum) for CheckSum
    gps.o(i.GetAvailableGPSInfoV) refers to memcpya.o(.text) for __aeabi_memcpy
    gps.o(i.GetAvailableGPSInfoV) refers to memseta.o(.text) for __aeabi_memclr
    gps.o(i.GetAvailableGPSInfoV) refers to main.o(.data) for g_ucUART6RXUsed
    gps.o(i.GetAvailableGPSInfoV) refers to main.o(.bss) for g_ucNeo6QBuff
    gps.o(i.GetAvailableGPSInfoV) refers to usart1.o(.data) for GPS_BaudRate_FLAG
    gps.o(i.GetAvailableGPSInfoV) refers to gps.o(.data) for dingwei_flag
    gps.o(i.GetAvailableGPSInfoV) refers to gps.o(.bss) for gps_ascii
    gps.o(i.reset_gps) refers to led.o(i.set_GPS_POWERON) for set_GPS_POWERON
    gps.o(i.reset_gps) refers to i2c_lsm330.o(i.delayms) for delayms
    gps.o(i.reset_gps) refers to usart1.o(i.UbxConfig) for UbxConfig
    gsm.o(i.BatteryStatusGet) refers to usart1.o(i.ddi_uart_Write) for ddi_uart_Write
    gsm.o(i.BatteryStatusGet) refers to gsm.o(i.WaitGSMOK1) for WaitGSMOK1
    gsm.o(i.BatteryStatusGet) refers to strstr.o(.text) for strstr
    gsm.o(i.BatteryStatusGet) refers to usart1.o(.bss) for UART1_ctl_t
    gsm.o(i.BatteryStatusGet) refers to main.o(.bss) for g_ucSim900Buff
    gsm.o(i.CallNum) refers to strncpy.o(.text) for strncpy
    gsm.o(i.CallNum) refers to usart1.o(i.ddi_uart_Write) for ddi_uart_Write
    gsm.o(i.CallNum) refers to usart1.o(.bss) for UART1_ctl_t
    gsm.o(i.ClrGSMBuff) refers to memseta.o(.text) for __aeabi_memclr
    gsm.o(i.ClrGSMBuff) refers to main.o(.bss) for g_ucSim900Buff
    gsm.o(i.ClrGSMBuff) refers to usart1.o(.data) for gUart0RxCnt
    gsm.o(i.Configuration_TEXT_SMS) refers to usart1.o(i.ddi_uart_Write) for ddi_uart_Write
    gsm.o(i.Configuration_TEXT_SMS) refers to gsm.o(i.WaitGSMOK1) for WaitGSMOK1
    gsm.o(i.Configuration_TEXT_SMS) refers to strstr.o(.text) for strstr
    gsm.o(i.Configuration_TEXT_SMS) refers to usart1.o(.bss) for UART1_ctl_t
    gsm.o(i.Configuration_TEXT_SMS) refers to main.o(.bss) for g_ucSim900Buff
    gsm.o(i.Deal_GSMRTC) refers to gsm.o(i.ClrGSMBuff) for ClrGSMBuff
    gsm.o(i.Deal_GSMRTC) refers to strstr.o(.text) for strstr
    gsm.o(i.Deal_GSMRTC) refers to i2c_lsm330.o(i.delayms) for delayms
    gsm.o(i.Deal_GSMRTC) refers to gsm.o(i.isdigtit_len) for isdigtit_len
    gsm.o(i.Deal_GSMRTC) refers to gprs.o(i.asciitodate) for asciitodate
    gsm.o(i.Deal_GSMRTC) refers to usart1.o(.data) for ManualRx0
    gsm.o(i.Deal_GSMRTC) refers to main.o(.bss) for g_ucSim900Buff
    gsm.o(i.Deal_GSMRTC) refers to gprs.o(.data) for time_gps_rtc
    gsm.o(i.Deal_GSMRTC) refers to stm32f0xx_it.o(.data) for secondcounter
    gsm.o(i.DelDealedSMS) refers to strlen.o(.text) for strlen
    gsm.o(i.DelDealedSMS) refers to strncat.o(.text) for strncat
    gsm.o(i.DelDealedSMS) refers to strcat.o(.text) for strcat
    gsm.o(i.DelDealedSMS) refers to usart1.o(i.ddi_uart_Write) for ddi_uart_Write
    gsm.o(i.DelDealedSMS) refers to i2c_lsm330.o(i.delayms) for delayms
    gsm.o(i.DelDealedSMS) refers to gsm.o(.constdata) for .constdata
    gsm.o(i.DelDealedSMS) refers to main.o(.data) for g_ucCurrentSMSNum
    gsm.o(i.DelDealedSMS) refers to usart1.o(.bss) for UART1_ctl_t
    gsm.o(i.GC65_CGATT) refers to usart1.o(i.ddi_uart_Write) for ddi_uart_Write
    gsm.o(i.GC65_CGATT) refers to gsm.o(i.WaitGSMOK1) for WaitGSMOK1
    gsm.o(i.GC65_CGATT) refers to strstr.o(.text) for strstr
    gsm.o(i.GC65_CGATT) refers to idiv.o(.text) for __aeabi_idivmod
    gsm.o(i.GC65_CGATT) refers to gsm.o(i.GC65_CPIN) for GC65_CPIN
    gsm.o(i.GC65_CGATT) refers to i2c_lsm330.o(i.delayms) for delayms
    gsm.o(i.GC65_CGATT) refers to usart1.o(.bss) for UART1_ctl_t
    gsm.o(i.GC65_CGATT) refers to main.o(.bss) for g_ucSim900Buff
    gsm.o(i.GC65_CGATT) refers to gsm.o(.data) for net_status
    gsm.o(i.GC65_CPIN) refers to usart1.o(i.ddi_uart_Write) for ddi_uart_Write
    gsm.o(i.GC65_CPIN) refers to gsm.o(i.WaitGSMOK1) for WaitGSMOK1
    gsm.o(i.GC65_CPIN) refers to strstr.o(.text) for strstr
    gsm.o(i.GC65_CPIN) refers to i2c_lsm330.o(i.delayms) for delayms
    gsm.o(i.GC65_CPIN) refers to gsm.o(.data) for CPIN_READY_flag
    gsm.o(i.GC65_CPIN) refers to usart1.o(.bss) for UART1_ctl_t
    gsm.o(i.GC65_CPIN) refers to main.o(.bss) for g_ucSim900Buff
    gsm.o(i.GC65_QINDI) refers to strcat.o(.text) for strcat
    gsm.o(i.GC65_QINDI) refers to usart1.o(i.ddi_uart_Write) for ddi_uart_Write
    gsm.o(i.GC65_QINDI) refers to gsm.o(i.WaitGSMOK1) for WaitGSMOK1
    gsm.o(i.GC65_QINDI) refers to i2c_lsm330.o(i.delayms) for delayms
    gsm.o(i.GC65_QINDI) refers to gsm.o(.constdata) for .constdata
    gsm.o(i.GC65_QINDI) refers to usart1.o(.bss) for UART1_ctl_t
    gsm.o(i.GC65_QIRD) refers to memseta.o(.text) for __aeabi_memclr
    gsm.o(i.GC65_QIRD) refers to usart1.o(i.ddi_uart_Write) for ddi_uart_Write
    gsm.o(i.GC65_QIRD) refers to i2c_lsm330.o(i.delayms) for delayms
    gsm.o(i.GC65_QIRD) refers to main.o(.bss) for g_ucGPRSCmdBuff
    gsm.o(i.GC65_QIRD) refers to usart1.o(.data) for GPRSCmdCount
    gsm.o(i.GC65_QIRD) refers to usart1.o(.bss) for UART1_ctl_t
    gsm.o(i.GSM_QICLOSED) refers to memcpya.o(.text) for __aeabi_memcpy4
    gsm.o(i.GSM_QICLOSED) refers to strncat.o(.text) for strncat
    gsm.o(i.GSM_QICLOSED) refers to strlen.o(.text) for strlen
    gsm.o(i.GSM_QICLOSED) refers to usart1.o(i.ddi_uart_Write) for ddi_uart_Write
    gsm.o(i.GSM_QICLOSED) refers to gsm.o(i.WaitGSMOK2) for WaitGSMOK2
    gsm.o(i.GSM_QICLOSED) refers to gsm.o(.constdata) for .constdata
    gsm.o(i.GSM_QICLOSED) refers to usart1.o(.bss) for UART1_ctl_t
    gsm.o(i.GetAvailableGPSInfoV_N) refers to gps.o(i.GetAvailableGPSInfoV) for GetAvailableGPSInfoV
    gsm.o(i.GetAvailableGPSInfoV_N) refers to i2c_lsm330.o(i.delayms) for delayms
    gsm.o(i.GetAvailableGPSInfoV_N) refers to gps.o(.data) for dingwei_flag
    gsm.o(i.GetGPRSStatus) refers to gsm.o(i.deal_g_ucSim900Status) for deal_g_ucSim900Status
    gsm.o(i.GetGPRSStatus) refers to usart1.o(i.ddi_uart_Write) for ddi_uart_Write
    gsm.o(i.GetGPRSStatus) refers to gsm.o(i.WaitGSMOK1) for WaitGSMOK1
    gsm.o(i.GetGPRSStatus) refers to gsm.o(i.WaitGSMOK2) for WaitGSMOK2
    gsm.o(i.GetGPRSStatus) refers to strstr.o(.text) for strstr
    gsm.o(i.GetGPRSStatus) refers to gsm.o(i.ClrGSMBuff) for ClrGSMBuff
    gsm.o(i.GetGPRSStatus) refers to strlen.o(.text) for strlen
    gsm.o(i.GetGPRSStatus) refers to strncmp.o(.text) for strncmp
    gsm.o(i.GetGPRSStatus) refers to usart1.o(.bss) for UART1_ctl_t
    gsm.o(i.GetGPRSStatus) refers to main.o(.data) for g_ucSim900Status
    gsm.o(i.GetGPRSStatus) refers to main.o(.bss) for g_ucSim900Buff
    gsm.o(i.SET_APN) refers to memcpya.o(.text) for __aeabi_memcpy4
    gsm.o(i.SET_APN) refers to strlen.o(.text) for strlen
    gsm.o(i.SET_APN) refers to strncat.o(.text) for strncat
    gsm.o(i.SET_APN) refers to strcat.o(.text) for strcat
    gsm.o(i.SET_APN) refers to usart1.o(i.ddi_uart_Write) for ddi_uart_Write
    gsm.o(i.SET_APN) refers to gsm.o(.constdata) for .constdata
    gsm.o(i.SET_APN) refers to main.o(.bss) for system_para
    gsm.o(i.SET_APN) refers to usart1.o(.bss) for UART1_ctl_t
    gsm.o(i.SendALARMSMS1) refers to gsm.o(i.SendLocaSMS) for SendLocaSMS
    gsm.o(i.SendLocaSMS) refers to memseta.o(.text) for __aeabi_memclr4
    gsm.o(i.SendLocaSMS) refers to strlen.o(.text) for strlen
    gsm.o(i.SendLocaSMS) refers to strncpy.o(.text) for strncpy
    gsm.o(i.SendLocaSMS) refers to gps.o(i.GetAvailableGPSInfoV) for GetAvailableGPSInfoV
    gsm.o(i.SendLocaSMS) refers to gsm.o(i.deal_g_ucSim900Status) for deal_g_ucSim900Status
    gsm.o(i.SendLocaSMS) refers to usart1.o(i.ddi_uart_Write) for ddi_uart_Write
    gsm.o(i.SendLocaSMS) refers to gsm.o(i.WaitGSMOK1) for WaitGSMOK1
    gsm.o(i.SendLocaSMS) refers to i2c_lsm330.o(i.delayms) for delayms
    gsm.o(i.SendLocaSMS) refers to gsm.o(i.WaitGSMOK2) for WaitGSMOK2
    gsm.o(i.SendLocaSMS) refers to strstr.o(.text) for strstr
    gsm.o(i.SendLocaSMS) refers to strncat.o(.text) for strncat
    gsm.o(i.SendLocaSMS) refers to gsm.o(.constdata) for .constdata
    gsm.o(i.SendLocaSMS) refers to main.o(.data) for gps_gate
    gsm.o(i.SendLocaSMS) refers to gps.o(.data) for dingweied_flag
    gsm.o(i.SendLocaSMS) refers to usart1.o(.bss) for UART1_ctl_t
    gsm.o(i.SendLocaSMS) refers to main.o(.bss) for g_ucNeo6QBuff
    gsm.o(i.SendLocaSMS1) refers to gsm.o(i.SendLocaSMS) for SendLocaSMS
    gsm.o(i.SendMsg) refers to memseta.o(.text) for __aeabi_memclr4
    gsm.o(i.SendMsg) refers to strlen.o(.text) for strlen
    gsm.o(i.SendMsg) refers to strncpy.o(.text) for strncpy
    gsm.o(i.SendMsg) refers to gsm.o(i.deal_g_ucSim900Status) for deal_g_ucSim900Status
    gsm.o(i.SendMsg) refers to usart1.o(i.ddi_uart_Write) for ddi_uart_Write
    gsm.o(i.SendMsg) refers to gsm.o(i.WaitGSMOK1) for WaitGSMOK1
    gsm.o(i.SendMsg) refers to memcpya.o(.text) for __aeabi_memcpy
    gsm.o(i.SendMsg) refers to gsm.o(i.WaitGSMOK2) for WaitGSMOK2
    gsm.o(i.SendMsg) refers to i2c_lsm330.o(i.delayms) for delayms
    gsm.o(i.SendMsg) refers to gsm.o(.constdata) for .constdata
    gsm.o(i.SendMsg) refers to usart1.o(.bss) for UART1_ctl_t
    gsm.o(i.SendMsg) refers to main.o(.data) for g_ucSim900Status
    gsm.o(i.SendMsg_Parameter_error) refers to gsm.o(i.SendMsg) for SendMsg
    gsm.o(i.SendMsg_Parameter_error) refers to main.o(.bss) for g_ucCurrentNum
    gsm.o(i.SendMsg_Password_error) refers to gsm.o(i.SendMsg) for SendMsg
    gsm.o(i.SendMsg_Password_error) refers to main.o(.bss) for g_ucCurrentNum
    gsm.o(i.SendMsg_UCS2) refers to strlen.o(.text) for strlen
    gsm.o(i.SendMsg_UCS2) refers to memseta.o(.text) for __aeabi_memclr
    gsm.o(i.SendMsg_UCS2) refers to memcpya.o(.text) for __aeabi_memcpy
    gsm.o(i.SendMsg_UCS2) refers to gsm.o(i.hextoascii) for hextoascii
    gsm.o(i.SendMsg_UCS2) refers to gsm.o(i.deal_g_ucSim900Status) for deal_g_ucSim900Status
    gsm.o(i.SendMsg_UCS2) refers to usart1.o(i.ddi_uart_Write) for ddi_uart_Write
    gsm.o(i.SendMsg_UCS2) refers to gsm.o(i.WaitGSMOK2) for WaitGSMOK2
    gsm.o(i.SendMsg_UCS2) refers to usart1.o(.bss) for UART1_tbuf
    gsm.o(i.SendMsg_UCS2) refers to main.o(.data) for g_ucSim900Status
    gsm.o(i.Send_lowpower_LocaSMS) refers to gsm.o(i.SendLocaSMS) for SendLocaSMS
    gsm.o(i.Send_speed_ALARMSMS) refers to idiv.o(.text) for __aeabi_idivmod
    gsm.o(i.Send_speed_ALARMSMS) refers to strlen.o(.text) for strlen
    gsm.o(i.Send_speed_ALARMSMS) refers to gsm.o(i.SendMsg) for SendMsg
    gsm.o(i.Send_speed_ALARMSMS) refers to gsm.o(.constdata) for .constdata
    gsm.o(i.Send_speed_ALARMSMS) refers to main.o(.data) for g_usCurrentSpeed
    gsm.o(i.StartGPRS) refers to memcpya.o(.text) for __aeabi_memcpy4
    gsm.o(i.StartGPRS) refers to main.o(i.check_sleep_state) for check_sleep_state
    gsm.o(i.StartGPRS) refers to strlen.o(.text) for strlen
    gsm.o(i.StartGPRS) refers to strncat.o(.text) for strncat
    gsm.o(i.StartGPRS) refers to strcat.o(.text) for strcat
    gsm.o(i.StartGPRS) refers to gsm.o(i.GC65_CPIN) for GC65_CPIN
    gsm.o(i.StartGPRS) refers to usart1.o(i.ddi_uart_Write) for ddi_uart_Write
    gsm.o(i.StartGPRS) refers to gsm.o(i.WaitGSMOK1) for WaitGSMOK1
    gsm.o(i.StartGPRS) refers to gsm.o(i.GetAvailableGPSInfoV_N) for GetAvailableGPSInfoV_N
    gsm.o(i.StartGPRS) refers to gsm.o(i.WaitGSM_ReadyCOPS) for WaitGSM_ReadyCOPS
    gsm.o(i.StartGPRS) refers to gsm.o(i.WaitGSM_ReadyNet) for WaitGSM_ReadyNet
    gsm.o(i.StartGPRS) refers to gsm.o(i.GC65_CGATT) for GC65_CGATT
    gsm.o(i.StartGPRS) refers to gsm.o(i.WaitGSM_ReadyQIMUX) for WaitGSM_ReadyQIMUX
    gsm.o(i.StartGPRS) refers to gsm.o(i.Configuration_TEXT_SMS) for Configuration_TEXT_SMS
    gsm.o(i.StartGPRS) refers to i2c_lsm330.o(i.delayms) for delayms
    gsm.o(i.StartGPRS) refers to main.o(i.Deal_SMS) for Deal_SMS
    gsm.o(i.StartGPRS) refers to gsm.o(i.WaitGSMOK2) for WaitGSMOK2
    gsm.o(i.StartGPRS) refers to stm32f0xx_gpio.o(i.GPIO_ResetBits) for GPIO_ResetBits
    gsm.o(i.StartGPRS) refers to strstr.o(.text) for strstr
    gsm.o(i.StartGPRS) refers to gsm.o(.constdata) for .constdata
    gsm.o(i.StartGPRS) refers to main.o(.bss) for system_para
    gsm.o(i.StartGPRS) refers to usart1.o(.bss) for UART1_ctl_t
    gsm.o(i.StartGPRS) refers to gsm.o(.data) for CPIN_READY_flag
    gsm.o(i.StartGPRS) refers to main.o(.data) for ring_sms
    gsm.o(i.StartGPRStoAGPS) refers to memseta.o(.text) for __aeabi_memclr4
    gsm.o(i.StartGPRStoAGPS) refers to strcpy.o(.text) for strcpy
    gsm.o(i.StartGPRStoAGPS) refers to strncat.o(.text) for strncat
    gsm.o(i.StartGPRStoAGPS) refers to strcat.o(.text) for strcat
    gsm.o(i.StartGPRStoAGPS) refers to gsm.o(i.GC65_CPIN) for GC65_CPIN
    gsm.o(i.StartGPRStoAGPS) refers to usart1.o(i.ddi_uart_Write) for ddi_uart_Write
    gsm.o(i.StartGPRStoAGPS) refers to gsm.o(i.WaitGSMOK1) for WaitGSMOK1
    gsm.o(i.StartGPRStoAGPS) refers to gsm.o(i.WaitGSM_ReadyCOPS) for WaitGSM_ReadyCOPS
    gsm.o(i.StartGPRStoAGPS) refers to gsm.o(i.GetAvailableGPSInfoV_N) for GetAvailableGPSInfoV_N
    gsm.o(i.StartGPRStoAGPS) refers to gsm.o(i.WaitGSM_ReadyNet) for WaitGSM_ReadyNet
    gsm.o(i.StartGPRStoAGPS) refers to gsm.o(i.GC65_CGATT) for GC65_CGATT
    gsm.o(i.StartGPRStoAGPS) refers to gsm.o(i.SET_APN) for SET_APN
    gsm.o(i.StartGPRStoAGPS) refers to gsm.o(i.WaitGSMOK2) for WaitGSMOK2
    gsm.o(i.StartGPRStoAGPS) refers to gsm.o(i.WaitGSM_ReadyQIMUX) for WaitGSM_ReadyQIMUX
    gsm.o(i.StartGPRStoAGPS) refers to strlen.o(.text) for strlen
    gsm.o(i.StartGPRStoAGPS) refers to stm32f0xx_gpio.o(i.GPIO_ResetBits) for GPIO_ResetBits
    gsm.o(i.StartGPRStoAGPS) refers to gps.o(.data) for GPS_module
    gsm.o(i.StartGPRStoAGPS) refers to usart1.o(.bss) for UART1_ctl_t
    gsm.o(i.StartGPRStoAGPS) refers to gsm.o(.data) for CPIN_READY_flag
    gsm.o(i.UDPSendData) refers to i2c_lsm330.o(i.delayms) for delayms
    gsm.o(i.UDPSendData) refers to gsm.o(i.hex2BCD_ASCII) for hex2BCD_ASCII
    gsm.o(i.UDPSendData) refers to memcpya.o(.text) for __aeabi_memcpy4
    gsm.o(i.UDPSendData) refers to idiv.o(.text) for __aeabi_idivmod
    gsm.o(i.UDPSendData) refers to strlen.o(.text) for strlen
    gsm.o(i.UDPSendData) refers to usart1.o(i.ddi_uart_Write) for ddi_uart_Write
    gsm.o(i.UDPSendData) refers to gsm.o(i.WaitGSMOK1) for WaitGSMOK1
    gsm.o(i.UDPSendData) refers to main.o(.data) for g_ucSim900Status
    gsm.o(i.UDPSendData) refers to usart1.o(.bss) for UART1_ctl_t
    gsm.o(i.UDPSendData_Index) refers to memseta.o(.text) for __aeabi_memclr4
    gsm.o(i.UDPSendData_Index) refers to gsm.o(i.deal_g_ucSim900Status) for deal_g_ucSim900Status
    gsm.o(i.UDPSendData_Index) refers to gsm.o(i.hex2BCD_ASCII) for hex2BCD_ASCII
    gsm.o(i.UDPSendData_Index) refers to idiv.o(.text) for __aeabi_idivmod
    gsm.o(i.UDPSendData_Index) refers to strlen.o(.text) for strlen
    gsm.o(i.UDPSendData_Index) refers to usart1.o(i.ddi_uart_Write) for ddi_uart_Write
    gsm.o(i.UDPSendData_Index) refers to gsm.o(i.WaitGSMOK1) for WaitGSMOK1
    gsm.o(i.UDPSendData_Index) refers to usart1.o(.bss) for UART1_ctl_t
    gsm.o(i.UDPSendData_Index) refers to main.o(.data) for g_ucSim900Status
    gsm.o(i.WaitGSMOK1) refers to stm32f0xx_iwdg.o(i.IWDG_ReloadCounter) for IWDG_ReloadCounter
    gsm.o(i.WaitGSMOK1) refers to gsm.o(i.ClrGSMBuff) for ClrGSMBuff
    gsm.o(i.WaitGSMOK1) refers to strstr.o(.text) for strstr
    gsm.o(i.WaitGSMOK1) refers to i2c_lsm330.o(i.delayms) for delayms
    gsm.o(i.WaitGSMOK1) refers to usart1.o(.data) for proGPRSCmdFlag
    gsm.o(i.WaitGSMOK1) refers to main.o(.bss) for g_ucSim900Buff
    gsm.o(i.WaitGSMOK2) refers to stm32f0xx_iwdg.o(i.IWDG_ReloadCounter) for IWDG_ReloadCounter
    gsm.o(i.WaitGSMOK2) refers to gsm.o(i.ClrGSMBuff) for ClrGSMBuff
    gsm.o(i.WaitGSMOK2) refers to strstr.o(.text) for strstr
    gsm.o(i.WaitGSMOK2) refers to i2c_lsm330.o(i.delayms) for delayms
    gsm.o(i.WaitGSMOK2) refers to usart1.o(.data) for proGPRSCmdFlag
    gsm.o(i.WaitGSMOK2) refers to main.o(.bss) for g_ucSim900Buff
    gsm.o(i.WaitGSM_ReadyCOPS) refers to idiv.o(.text) for __aeabi_idivmod
    gsm.o(i.WaitGSM_ReadyCOPS) refers to usart1.o(i.ddi_uart_Write) for ddi_uart_Write
    gsm.o(i.WaitGSM_ReadyCOPS) refers to gsm.o(i.WaitGSMOK1) for WaitGSMOK1
    gsm.o(i.WaitGSM_ReadyCOPS) refers to strstr.o(.text) for strstr
    gsm.o(i.WaitGSM_ReadyCOPS) refers to gsm.o(i.GC65_CPIN) for GC65_CPIN
    gsm.o(i.WaitGSM_ReadyCOPS) refers to i2c_lsm330.o(i.delayms) for delayms
    gsm.o(i.WaitGSM_ReadyCOPS) refers to usart1.o(.bss) for UART1_ctl_t
    gsm.o(i.WaitGSM_ReadyCOPS) refers to main.o(.bss) for g_ucSim900Buff
    gsm.o(i.WaitGSM_ReadyCOPS) refers to main.o(.data) for MobileCompany
    gsm.o(i.WaitGSM_ReadyCOPS) refers to gsm.o(.data) for cops_flag
    gsm.o(i.WaitGSM_ReadyCOPS) refers to stm32f0xx_it.o(.data) for secondcounter
    gsm.o(i.WaitGSM_ReadyNet) refers to usart1.o(i.ddi_uart_Write) for ddi_uart_Write
    gsm.o(i.WaitGSM_ReadyNet) refers to gsm.o(i.WaitGSMOK1) for WaitGSMOK1
    gsm.o(i.WaitGSM_ReadyNet) refers to strstr.o(.text) for strstr
    gsm.o(i.WaitGSM_ReadyNet) refers to idiv.o(.text) for __aeabi_idivmod
    gsm.o(i.WaitGSM_ReadyNet) refers to gsm.o(i.GC65_CPIN) for GC65_CPIN
    gsm.o(i.WaitGSM_ReadyNet) refers to i2c_lsm330.o(i.delayms) for delayms
    gsm.o(i.WaitGSM_ReadyNet) refers to usart1.o(.bss) for UART1_ctl_t
    gsm.o(i.WaitGSM_ReadyNet) refers to main.o(.bss) for g_ucSim900Buff
    gsm.o(i.WaitGSM_ReadyQIMUX) refers to usart1.o(i.ddi_uart_Write) for ddi_uart_Write
    gsm.o(i.WaitGSM_ReadyQIMUX) refers to gsm.o(i.WaitGSMOK1) for WaitGSMOK1
    gsm.o(i.WaitGSM_ReadyQIMUX) refers to strstr.o(.text) for strstr
    gsm.o(i.WaitGSM_ReadyQIMUX) refers to i2c_lsm330.o(i.delayms) for delayms
    gsm.o(i.WaitGSM_ReadyQIMUX) refers to usart1.o(.bss) for UART1_ctl_t
    gsm.o(i.WaitGSM_ReadyQIMUX) refers to main.o(.bss) for g_ucSim900Buff
    gsm.o(i.asciitohex) refers to memseta.o(.text) for __aeabi_memclr4
    gsm.o(i.asciitohex) refers to memcpya.o(.text) for __aeabi_memcpy
    gsm.o(i.deal_g_ucSim900Status) refers to i2c_lsm330.o(i.delayms) for delayms
    gsm.o(i.deal_g_ucSim900Status) refers to main.o(.data) for g_ucSim900Status
    gsm.o(i.get_ASCII_TIM) refers to gprs.o(i.RTC_Get) for RTC_Get
    gsm.o(i.get_ASCII_TIM) refers to idiv.o(.text) for __aeabi_idivmod
    gsm.o(i.get_ASCII_TIM) refers to gsm.o(i.hex2acsii_u8) for hex2acsii_u8
    gsm.o(i.get_ASCII_TIM) refers to gprs.o(.bss) for timer
    gsm.o(i.get_gps_mesg_ascii) refers to strncat.o(.text) for strncat
    gsm.o(i.get_gps_mesg_ascii) refers to strstr.o(.text) for strstr
    gsm.o(i.get_gps_mesg_ascii) refers to gprs.o(i.asciitospeed) for asciitospeed
    gsm.o(i.get_gps_mesg_ascii) refers to idiv.o(.text) for __aeabi_idivmod
    gsm.o(i.get_gps_mesg_ascii) refers to gsm.o(i.hex2BCD_ASCII) for hex2BCD_ASCII
    gsm.o(i.get_gps_mesg_ascii) refers to gps.o(.bss) for gps_ascii
    gsm.o(i.hex2BCD_ASCII) refers to idiv.o(.text) for __aeabi_idivmod
    gsm.o(i.hex2BCD_ASCII1) refers to idiv.o(.text) for __aeabi_idivmod
    gsm.o(i.hex2acsii_u8) refers to idiv.o(.text) for __aeabi_idivmod
    gsm.o(i.isdigtit_len) refers to gsm.o(i.isdigit_w) for isdigit_w
    gsm.o(i.send_chinese_sms) refers to usart1.o(i.ddi_uart_Write) for ddi_uart_Write
    gsm.o(i.send_chinese_sms) refers to gsm.o(i.WaitGSMOK1) for WaitGSMOK1
    gsm.o(i.send_chinese_sms) refers to strstr.o(.text) for strstr
    gsm.o(i.send_chinese_sms) refers to gsm.o(i.SendMsg_UCS2) for SendMsg_UCS2
    gsm.o(i.send_chinese_sms) refers to usart1.o(.bss) for UART1_ctl_t
    gsm.o(i.send_chinese_sms) refers to main.o(.bss) for g_ucSim900Buff
    led.o(i.Check_AT) refers to usart1.o(i.ddi_uart_Write) for ddi_uart_Write
    led.o(i.Check_AT) refers to gsm.o(i.WaitGSMOK1) for WaitGSMOK1
    led.o(i.Check_AT) refers to i2c_lsm330.o(i.delayms) for delayms
    led.o(i.Check_AT) refers to usart1.o(.bss) for UART1_ctl_t
    led.o(i.Clear_All_GSM_flag) refers to gsm.o(.data) for dial_status
    led.o(i.Clear_All_GSM_flag) refers to main.o(.data) for ring_sms
    led.o(i.GSM_Power) refers to stm32f0xx_gpio.o(i.GPIO_ResetBits) for GPIO_ResetBits
    led.o(i.GSM_Power) refers to stm32f0xx_gpio.o(i.GPIO_SetBits) for GPIO_SetBits
    led.o(i.GSM_Power) refers to i2c_lsm330.o(i.delayms) for delayms
    led.o(i.GSM_Power) refers to usart1.o(i.ddi_uart1_init) for ddi_uart1_init
    led.o(i.GSM_Power) refers to led.o(i.Check_AT) for Check_AT
    led.o(i.GSM_Power) refers to gsm.o(i.Deal_GSMRTC) for Deal_GSMRTC
    led.o(i.GSM_Power) refers to usart1.o(i.ddi_uart_Write) for ddi_uart_Write
    led.o(i.GSM_Power) refers to gsm.o(i.WaitGSMOK1) for WaitGSMOK1
    led.o(i.GSM_Power) refers to usart1.o(i.ddi_uart_open) for ddi_uart_open
    led.o(i.GSM_Power) refers to gsm.o(i.WaitGSMOK2) for WaitGSMOK2
    led.o(i.GSM_Power) refers to usart1.o(i.UbxConfig) for UbxConfig
    led.o(i.GSM_Power) refers to usart1.o(i.Get_GPS_module) for Get_GPS_module
    led.o(i.GSM_Power) refers to led.o(.constdata) for .constdata
    led.o(i.GSM_Power) refers to usart1.o(.bss) for UART1_ctl_t
    led.o(i.GSM_reset) refers to led.o(i.GSM_Power) for GSM_Power
    led.o(i.GSM_reset) refers to i2c_lsm330.o(i.delayms) for delayms
    led.o(i.GSM_reset) refers to led.o(i.RING_EXTI0_Config) for RING_EXTI0_Config
    led.o(i.GSM_reset) refers to led.o(i.Clear_All_GSM_flag) for Clear_All_GSM_flag
    led.o(i.IO_Init) refers to stm32f0xx_rcc.o(i.RCC_AHBPeriphClockCmd) for RCC_AHBPeriphClockCmd
    led.o(i.IO_Init) refers to stm32f0xx_gpio.o(i.GPIO_Init) for GPIO_Init
    led.o(i.IO_Init) refers to stm32f0xx_rcc.o(i.RCC_APB2PeriphClockCmd) for RCC_APB2PeriphClockCmd
    led.o(i.IO_Init) refers to stm32f0xx_syscfg.o(i.SYSCFG_EXTILineConfig) for SYSCFG_EXTILineConfig
    led.o(i.IO_Init) refers to stm32f0xx_exti.o(i.EXTI_Init) for EXTI_Init
    led.o(i.IO_Init) refers to stm32f0xx_misc.o(i.NVIC_Init) for NVIC_Init
    led.o(i.RING_EXTI0_Config) refers to stm32f0xx_rcc.o(i.RCC_AHBPeriphClockCmd) for RCC_AHBPeriphClockCmd
    led.o(i.RING_EXTI0_Config) refers to stm32f0xx_gpio.o(i.GPIO_Init) for GPIO_Init
    led.o(i.RING_EXTI0_Config) refers to stm32f0xx_rcc.o(i.RCC_APB2PeriphClockCmd) for RCC_APB2PeriphClockCmd
    led.o(i.RING_EXTI0_Config) refers to stm32f0xx_syscfg.o(i.SYSCFG_EXTILineConfig) for SYSCFG_EXTILineConfig
    led.o(i.RING_EXTI0_Config) refers to stm32f0xx_exti.o(i.EXTI_Init) for EXTI_Init
    led.o(i.RING_EXTI0_Config) refers to stm32f0xx_misc.o(i.NVIC_Init) for NVIC_Init
    led.o(i.get_ACC_CHECK_status) refers to stm32f0xx_gpio.o(i.GPIO_ReadInputDataBit) for GPIO_ReadInputDataBit
    led.o(i.get_ALARM_status) refers to stm32f0xx_gpio.o(i.GPIO_ReadInputDataBit) for GPIO_ReadInputDataBit
    led.o(i.get_GSM_RING_status) refers to stm32f0xx_gpio.o(i.GPIO_ReadInputDataBit) for GPIO_ReadInputDataBit
    led.o(i.get_SHAKE_status) refers to stm32f0xx_gpio.o(i.GPIO_ReadInputDataBit) for GPIO_ReadInputDataBit
    led.o(i.set_GPS_POWERON) refers to stm32f0xx_gpio.o(i.GPIO_SetBits) for GPIO_SetBits
    led.o(i.set_GPS_POWERON) refers to stm32f0xx_gpio.o(i.GPIO_ResetBits) for GPIO_ResetBits
    led.o(i.set_GSM_POWERON) refers to stm32f0xx_gpio.o(i.GPIO_SetBits) for GPIO_SetBits
    led.o(i.set_GSM_POWERON) refers to stm32f0xx_gpio.o(i.GPIO_ResetBits) for GPIO_ResetBits
    led.o(i.set_OIL_BREAK) refers to stm32f0xx_gpio.o(i.GPIO_SetBits) for GPIO_SetBits
    led.o(i.set_OIL_BREAK) refers to stm32f0xx_gpio.o(i.GPIO_ResetBits) for GPIO_ResetBits
    main.o(i.Backup_Store_System_Para) refers to stm32f0xx_flash.o(i.FLASH_Unlock) for FLASH_Unlock
    main.o(i.Backup_Store_System_Para) refers to stm32f0xx_flash.o(i.FLASH_ClearFlag) for FLASH_ClearFlag
    main.o(i.Backup_Store_System_Para) refers to stm32f0xx_flash.o(i.FLASH_ErasePage) for FLASH_ErasePage
    main.o(i.Backup_Store_System_Para) refers to stm32f0xx_flash.o(i.FLASH_ProgramWord) for FLASH_ProgramWord
    main.o(i.Backup_Store_System_Para) refers to stm32f0xx_flash.o(i.FLASH_Lock) for FLASH_Lock
    main.o(i.Backup_Store_System_Para) refers to main.o(.bss) for system_para
    main.o(i.Deal_SMS) refers to memcpya.o(.text) for __aeabi_memcpy4
    main.o(i.Deal_SMS) refers to i2c_lsm330.o(i.delayms) for delayms
    main.o(i.Deal_SMS) refers to memseta.o(.text) for __aeabi_memclr4
    main.o(i.Deal_SMS) refers to strlen.o(.text) for strlen
    main.o(i.Deal_SMS) refers to usart1.o(i.ddi_uart_Write) for ddi_uart_Write
    main.o(i.Deal_SMS) refers to usart1.o(i.UART0_ReceiveData) for UART0_ReceiveData
    main.o(i.Deal_SMS) refers to strstr.o(.text) for strstr
    main.o(i.Deal_SMS) refers to strncpy.o(.text) for strncpy
    main.o(i.Deal_SMS) refers to smscmd.o(i.analysis_sms) for analysis_sms
    main.o(i.Deal_SMS) refers to smscmd.o(i.setSMS) for setSMS
    main.o(i.Deal_SMS) refers to main.o(.constdata) for .constdata
    main.o(i.Deal_SMS) refers to main.o(.data) for ring_sms
    main.o(i.Deal_SMS) refers to main.o(.bss) for system_para
    main.o(i.Deal_SMS) refers to usart1.o(.bss) for UART1_ctl_t
    main.o(i.Deal_SMS) refers to usart1.o(.data) for gUart0RxCnt
    main.o(i.Deal_SMS) refers to smscmd.o(.bss) for smsdatareg
    main.o(i.Deal_SMS) refers to stm32f0xx_it.o(.data) for ring_start_flag
    main.o(i.Delay) refers to main.o(.data) for TimingDelay
    main.o(i.FLASH_ErasePage_Complete) refers to stm32f0xx_flash.o(i.FLASH_Unlock) for FLASH_Unlock
    main.o(i.FLASH_ErasePage_Complete) refers to stm32f0xx_flash.o(i.FLASH_ClearFlag) for FLASH_ClearFlag
    main.o(i.FLASH_ErasePage_Complete) refers to stm32f0xx_flash.o(i.FLASH_ErasePage) for FLASH_ErasePage
    main.o(i.FLASH_ErasePage_Complete) refers to stm32f0xx_flash.o(i.FLASH_Lock) for FLASH_Lock
    main.o(i.RTC_Config) refers to stm32f0xx_rcc.o(i.RCC_APB1PeriphClockCmd) for RCC_APB1PeriphClockCmd
    main.o(i.RTC_Config) refers to stm32f0xx_pwr.o(i.PWR_BackupAccessCmd) for PWR_BackupAccessCmd
    main.o(i.RTC_Config) refers to stm32f0xx_rcc.o(i.RCC_BackupResetCmd) for RCC_BackupResetCmd
    main.o(i.RTC_Config) refers to stm32f0xx_rcc.o(i.RCC_LSICmd) for RCC_LSICmd
    main.o(i.RTC_Config) refers to stm32f0xx_rcc.o(i.RCC_GetFlagStatus) for RCC_GetFlagStatus
    main.o(i.RTC_Config) refers to stm32f0xx_rcc.o(i.RCC_RTCCLKConfig) for RCC_RTCCLKConfig
    main.o(i.RTC_Config) refers to stm32f0xx_rcc.o(i.RCC_RTCCLKCmd) for RCC_RTCCLKCmd
    main.o(i.RTC_Config) refers to stm32f0xx_rtc.o(i.RTC_WaitForSynchro) for RTC_WaitForSynchro
    main.o(i.RTC_Config) refers to stm32f0xx_exti.o(i.EXTI_ClearITPendingBit) for EXTI_ClearITPendingBit
    main.o(i.RTC_Config) refers to stm32f0xx_exti.o(i.EXTI_Init) for EXTI_Init
    main.o(i.RTC_Config) refers to stm32f0xx_misc.o(i.NVIC_Init) for NVIC_Init
    main.o(i.RTC_Config) refers to stm32f0xx_rtc.o(i.RTC_Init) for RTC_Init
    main.o(i.RTC_Config) refers to stm32f0xx_rtc.o(i.RTC_SetAlarm) for RTC_SetAlarm
    main.o(i.RTC_Config) refers to stm32f0xx_rtc.o(i.RTC_ITConfig) for RTC_ITConfig
    main.o(i.RTC_Config) refers to stm32f0xx_rtc.o(i.RTC_AlarmCmd) for RTC_AlarmCmd
    main.o(i.RTC_Config) refers to stm32f0xx_rtc.o(i.RTC_SetTime) for RTC_SetTime
    main.o(i.RTC_Config) refers to stm32f0xx_rtc.o(i.RTC_ClearITPendingBit) for RTC_ClearITPendingBit
    main.o(i.RestoreSystem) refers to memseta.o(.text) for __aeabi_memclr4
    main.o(i.RestoreSystem) refers to strlen.o(.text) for strlen
    main.o(i.RestoreSystem) refers to memcpya.o(.text) for __aeabi_memcpy
    main.o(i.RestoreSystem) refers to uwrite4.o(.text) for __aeabi_uwrite4
    main.o(i.RestoreSystem) refers to strncpy.o(.text) for strncpy
    main.o(i.RestoreSystem) refers to ddi_norflash.o(i.mileage_flash_init) for mileage_flash_init
    main.o(i.RestoreSystem) refers to main.o(.bss) for system_para
    main.o(i.RestoreSystem) refers to main.o(.constdata) for IPADDR
    main.o(i.Set_Store_System_Para) refers to stm32f0xx_flash.o(i.FLASH_Unlock) for FLASH_Unlock
    main.o(i.Set_Store_System_Para) refers to stm32f0xx_flash.o(i.FLASH_ClearFlag) for FLASH_ClearFlag
    main.o(i.Set_Store_System_Para) refers to stm32f0xx_flash.o(i.FLASH_ErasePage) for FLASH_ErasePage
    main.o(i.Set_Store_System_Para) refers to stm32f0xx_flash.o(i.FLASH_ProgramWord) for FLASH_ProgramWord
    main.o(i.Set_Store_System_Para) refers to stm32f0xx_flash.o(i.FLASH_Lock) for FLASH_Lock
    main.o(i.Set_Store_System_Para) refers to main.o(.bss) for system_para
    main.o(i.Store_System_Para) refers to main.o(i.Set_Store_System_Para) for Set_Store_System_Para
    main.o(i.Store_System_Para) refers to main.o(i.FLASH_ErasePage_Complete) for FLASH_ErasePage_Complete
    main.o(i.Store_System_Para) refers to main.o(i.Backup_Store_System_Para) for Backup_Store_System_Para
    main.o(i.SysTick_Config) refers to main.o(i.NVIC_SetPriority) for NVIC_SetPriority
    main.o(i.SysTick_Configuration) refers to main.o(i.SysTick_Config) for SysTick_Config
    main.o(i.SysTick_Configuration) refers to stm32f0xx_misc.o(i.SysTick_CLKSourceConfig) for SysTick_CLKSourceConfig
    main.o(i.SysTick_Configuration) refers to main.o(i.NVIC_SetPriority) for NVIC_SetPriority
    main.o(i.SysTick_Configuration) refers to system_stm32f0xx.o(.data) for SystemCoreClock
    main.o(i.TIM_Config) refers to stm32f0xx_rcc.o(i.RCC_APB1PeriphClockCmd) for RCC_APB1PeriphClockCmd
    main.o(i.TIM_Config) refers to stm32f0xx_misc.o(i.NVIC_Init) for NVIC_Init
    main.o(i.TIM_Config) refers to uidiv.o(.text) for __aeabi_uidivmod
    main.o(i.TIM_Config) refers to stm32f0xx_tim.o(i.TIM_TimeBaseInit) for TIM_TimeBaseInit
    main.o(i.TIM_Config) refers to stm32f0xx_tim.o(i.TIM_PrescalerConfig) for TIM_PrescalerConfig
    main.o(i.TIM_Config) refers to stm32f0xx_tim.o(i.TIM_ITConfig) for TIM_ITConfig
    main.o(i.TIM_Config) refers to stm32f0xx_tim.o(i.TIM_Cmd) for TIM_Cmd
    main.o(i.TIM_Config) refers to system_stm32f0xx.o(.data) for SystemCoreClock
    main.o(i.TIM_Config) refers to main.o(.data) for PrescalerValue
    main.o(i.TIM_Config) refers to main.o(.bss) for TIM_TimeBaseStructure
    main.o(i.check_sleep_state) refers to main.o(.bss) for system_para
    main.o(i.check_sleep_state) refers to main.o(.data) for g_ucACCFlag
    main.o(i.delayms_nodog) refers to i2c_lsm330.o(i.delayus) for delayus
    main.o(i.energy) refers to gsm.o(i.WaitGSMOK1) for WaitGSMOK1
    main.o(i.energy) refers to stm32f0xx_misc.o(i.NVIC_Init) for NVIC_Init
    main.o(i.energy) refers to stm32f0xx_usart.o(i.USART_Cmd) for USART_Cmd
    main.o(i.energy) refers to stm32f0xx_gpio.o(i.GPIO_SetBits) for GPIO_SetBits
    main.o(i.energy) refers to led.o(i.GSM_Power) for GSM_Power
    main.o(i.energy) refers to stm32f0xx_gpio.o(i.GPIO_ResetBits) for GPIO_ResetBits
    main.o(i.energy) refers to stm32f0xx_gpio.o(i.GPIO_Init) for GPIO_Init
    main.o(i.energy) refers to stm32f0xx_iwdg.o(i.IWDG_ReloadCounter) for IWDG_ReloadCounter
    main.o(i.energy) refers to wdg.o(i.IWDG_Feed) for IWDG_Feed
    main.o(i.energy) refers to main.o(i.RTC_Config) for RTC_Config
    main.o(i.energy) refers to stm32f0xx_pwr.o(i.PWR_EnterSTOPMode) for PWR_EnterSTOPMode
    main.o(i.energy) refers to stm32f0xx_rtc.o(i.RTC_ITConfig) for RTC_ITConfig
    main.o(i.energy) refers to stm32f0xx_rtc.o(i.RTC_AlarmCmd) for RTC_AlarmCmd
    main.o(i.energy) refers to main.o(i.SYSCLKConfig_STOP) for SYSCLKConfig_STOP
    main.o(i.energy) refers to led.o(i.IO_Init) for IO_Init
    main.o(i.energy) refers to i2c_lsm330.o(i.delayms) for delayms
    main.o(i.energy) refers to usart1.o(i.ddi_uart2_init) for ddi_uart2_init
    main.o(i.energy) refers to led.o(i.RING_EXTI0_Config) for RING_EXTI0_Config
    main.o(i.energy) refers to gsm.o(i.StartGPRS) for StartGPRS
    main.o(i.energy) refers to led.o(i.GSM_reset) for GSM_reset
    main.o(i.energy) refers to strlen.o(.text) for strlen
    main.o(i.energy) refers to gsm.o(i.SendALARMSMS1) for SendALARMSMS1
    main.o(i.energy) refers to main.o(.data) for g_ucGotoSleepFlag
    main.o(i.energy) refers to stm32f0xx_it.o(.data) for RTC_ALARM_timer
    main.o(i.energy) refers to main.o(.bss) for system_para
    main.o(i.energy) refers to gps.o(.data) for timegpserror
    main.o(i.energy) refers to gsm.o(.data) for dial_status
    main.o(i.energy) refers to gprs.o(.data) for ACC_GPS_flag
    main.o(i.main) refers to memcpya.o(.text) for __aeabi_memcpy4
    main.o(i.main) refers to wdg.o(i.IWDG_Init) for IWDG_Init
    main.o(i.main) refers to led.o(i.IO_Init) for IO_Init
    main.o(i.main) refers to led.o(i.set_GPS_POWERON) for set_GPS_POWERON
    main.o(i.main) refers to stm32f0xx_gpio.o(i.GPIO_ResetBits) for GPIO_ResetBits
    main.o(i.main) refers to main.o(i.sys_Init) for sys_Init
    main.o(i.main) refers to main.o(i.TIM_Config) for TIM_Config
    main.o(i.main) refers to usart1.o(i.ddi_uart1_init) for ddi_uart1_init
    main.o(i.main) refers to usart1.o(i.ddi_uart2_init) for ddi_uart2_init
    main.o(i.main) refers to usart1.o(i.ddi_uart_open) for ddi_uart_open
    main.o(i.main) refers to i2c_lsm330.o(i.delayms) for delayms
    main.o(i.main) refers to stm32f0xx_gpio.o(i.GPIO_SetBits) for GPIO_SetBits
    main.o(i.main) refers to uidiv.o(.text) for __aeabi_uidivmod
    main.o(i.main) refers to main.o(i.SysTick_Config) for SysTick_Config
    main.o(i.main) refers to set_system_use_uart.o(i.InitialSetting) for InitialSetting
    main.o(i.main) refers to usart1.o(i.ddi_uart_Write) for ddi_uart_Write
    main.o(i.main) refers to memseta.o(.text) for __aeabi_memclr
    main.o(i.main) refers to ddi_norflash.o(i.mileage_init) for mileage_init
    main.o(i.main) refers to led.o(i.GSM_Power) for GSM_Power
    main.o(i.main) refers to led.o(i.RING_EXTI0_Config) for RING_EXTI0_Config
    main.o(i.main) refers to led.o(i.Clear_All_GSM_flag) for Clear_All_GSM_flag
    main.o(i.main) refers to led.o(i.GSM_reset) for GSM_reset
    main.o(i.main) refers to adc.o(i.ADC1_Config) for ADC1_Config
    main.o(i.main) refers to gps.o(i.GetAvailableGPSInfoV) for GetAvailableGPSInfoV
    main.o(i.main) refers to gsm.o(i.StartGPRStoAGPS) for StartGPRStoAGPS
    main.o(i.main) refers to gsm.o(i.GetAvailableGPSInfoV_N) for GetAvailableGPSInfoV_N
    main.o(i.main) refers to led.o(i.Check_AT) for Check_AT
    main.o(i.main) refers to gprs.o(i.test_a_gps) for test_a_gps
    main.o(i.main) refers to gsm.o(i.GetGPRSStatus) for GetGPRSStatus
    main.o(i.main) refers to gsm.o(i.GSM_QICLOSED) for GSM_QICLOSED
    main.o(i.main) refers to main.o(i.check_sleep_state) for check_sleep_state
    main.o(i.main) refers to gsm.o(i.StartGPRS) for StartGPRS
    main.o(i.main) refers to gsm.o(i.Configuration_TEXT_SMS) for Configuration_TEXT_SMS
    main.o(i.main) refers to main.o(i.Deal_SMS) for Deal_SMS
    main.o(i.main) refers to stm32f0xx_iwdg.o(i.IWDG_ReloadCounter) for IWDG_ReloadCounter
    main.o(i.main) refers to uread4.o(.text) for __aeabi_uread4
    main.o(i.main) refers to gprs.o(i.SetGPRS) for SetGPRS
    main.o(i.main) refers to idiv.o(.text) for __aeabi_idivmod
    main.o(i.main) refers to gprs.o(i.cmd_INQUIRE_CHINESE_POSITION) for cmd_INQUIRE_CHINESE_POSITION
    main.o(i.main) refers to gsm.o(i.send_chinese_sms) for send_chinese_sms
    main.o(i.main) refers to main.o(.constdata) for .constdata
    main.o(i.main) refers to main.o(.data) for BitFlag
    main.o(i.main) refers to usart1.o(.bss) for UART1_ctl_t
    main.o(i.main) refers to system_stm32f0xx.o(.data) for SystemCoreClock
    main.o(i.main) refers to gps.o(.bss) for gps_ascii
    main.o(i.main) refers to gps.o(.data) for dingweied_flag
    main.o(i.main) refers to gsm.o(.data) for dial_status
    main.o(i.main) refers to stm32f0xx_it.o(.data) for secondcounter
    main.o(i.main) refers to main.o(.bss) for system_para
    main.o(i.main) refers to strlen.o(.text) for strlen
    main.o(i.main) refers to gsm.o(i.Send_speed_ALARMSMS) for Send_speed_ALARMSMS
    main.o(i.main) refers to gps.o(i.reset_gps) for reset_gps
    main.o(i.main) refers to gprs.o(i.RTC_Get) for RTC_Get
    main.o(i.main) refers to ddi_norflash.o(i.mileage_write) for mileage_write
    main.o(i.main) refers to adc.o(i.GetVoltage) for GetVoltage
    main.o(i.main) refers to led.o(i.get_ALARM_status) for get_ALARM_status
    main.o(i.main) refers to gprs.o(i.cmd_0200) for cmd_0200
    main.o(i.main) refers to gprs.o(i.cmd_0002) for cmd_0002
    main.o(i.main) refers to main.o(i.energy) for energy
    main.o(i.main) refers to gsm.o(i.BatteryStatusGet) for BatteryStatusGet
    main.o(i.main) refers to gsm.o(i.SendALARMSMS1) for SendALARMSMS1
    main.o(i.main) refers to gsm.o(i.Send_lowpower_LocaSMS) for Send_lowpower_LocaSMS
    main.o(i.main) refers to usart1.o(.data) for GPS_BaudRate_FLAG
    main.o(i.sys_Init) refers to memcpya.o(.text) for __aeabi_memcpy
    main.o(i.sys_Init) refers to main.o(i.Backup_Store_System_Para) for Backup_Store_System_Para
    main.o(i.sys_Init) refers to led.o(i.set_OIL_BREAK) for set_OIL_BREAK
    main.o(i.sys_Init) refers to main.o(i.Set_Store_System_Para) for Set_Store_System_Para
    main.o(i.sys_Init) refers to main.o(i.RestoreSystem) for RestoreSystem
    main.o(i.sys_Init) refers to main.o(.bss) for system_para
    main.o(i.sys_Init) refers to main.o(.constdata) for DEVICEID
    set_system_use_uart.o(i.InitialSetting) refers to memcpya.o(.text) for __aeabi_memcpy4
    set_system_use_uart.o(i.InitialSetting) refers to usart1.o(i.ddi_uart_Write) for ddi_uart_Write
    set_system_use_uart.o(i.InitialSetting) refers to set_system_use_uart.o(i.PrintATF) for PrintATF
    set_system_use_uart.o(i.InitialSetting) refers to i2c_lsm330.o(i.delayms) for delayms
    set_system_use_uart.o(i.InitialSetting) refers to strstr.o(.text) for strstr
    set_system_use_uart.o(i.InitialSetting) refers to stm32f0xx_iwdg.o(i.IWDG_ReloadCounter) for IWDG_ReloadCounter
    set_system_use_uart.o(i.InitialSetting) refers to smscmd.o(i.Cmd_SETM) for Cmd_SETM
    set_system_use_uart.o(i.InitialSetting) refers to memseta.o(.text) for __aeabi_memclr4
    set_system_use_uart.o(i.InitialSetting) refers to smscmd.o(i.sub_cxcs) for sub_cxcs
    set_system_use_uart.o(i.InitialSetting) refers to strlen.o(.text) for strlen
    set_system_use_uart.o(i.InitialSetting) refers to gsm.o(i.hextoascii) for hextoascii
    set_system_use_uart.o(i.InitialSetting) refers to gsm.o(i.asciitohex) for asciitohex
    set_system_use_uart.o(i.InitialSetting) refers to gsm.o(i.hex2BCD_ASCII1) for hex2BCD_ASCII1
    set_system_use_uart.o(i.InitialSetting) refers to main.o(i.Store_System_Para) for Store_System_Para
    set_system_use_uart.o(i.InitialSetting) refers to main.o(.constdata) for g_ucVERSION
    set_system_use_uart.o(i.InitialSetting) refers to usart1.o(.bss) for UART2_ctl_t
    set_system_use_uart.o(i.InitialSetting) refers to main.o(.data) for EN_initialize
    set_system_use_uart.o(i.InitialSetting) refers to main.o(.bss) for g_ucGPRSCmdBuffback
    set_system_use_uart.o(i.InitialSetting) refers to set_system_use_uart.o(.data) for paraset_flag
    set_system_use_uart.o(i.InitialSetting) refers to stm32f0xx_it.o(.data) for secondcounter
    set_system_use_uart.o(i.InitialSetting) refers to strncpy.o(.text) for strncpy
    set_system_use_uart.o(i.InitialSetting) refers to uread4.o(.text) for __aeabi_uread4
    set_system_use_uart.o(i.InitialSetting) refers to uwrite4.o(.text) for __aeabi_uwrite4
    set_system_use_uart.o(i.InitialSetting) refers to uidiv.o(.text) for __aeabi_uidivmod
    set_system_use_uart.o(i.InitialSetting) refers to main.o(i.sys_Init) for sys_Init
    set_system_use_uart.o(i.InitialSetting) refers to led.o(i.GSM_Power) for GSM_Power
    set_system_use_uart.o(i.InitialSetting) refers to strncmp.o(.text) for strncmp
    set_system_use_uart.o(i.InitialSetting) refers to usart1.o(.data) for GPRSCmdCount
    set_system_use_uart.o(i.PrintATF) refers to usart1.o(i.ddi_uart_Write) for ddi_uart_Write
    set_system_use_uart.o(i.PrintATF) refers to strlen.o(.text) for strlen
    set_system_use_uart.o(i.PrintATF) refers to gsm.o(i.hextoascii) for hextoascii
    set_system_use_uart.o(i.PrintATF) refers to usart1.o(.bss) for UART2_ctl_t
    set_system_use_uart.o(i.PrintATF) refers to main.o(.bss) for system_para
    set_system_use_uart.o(i.ddi_send_Number_registed_Failed) refers to usart1.o(i.ddi_uart_Write) for ddi_uart_Write
    set_system_use_uart.o(i.ddi_send_Number_registed_Failed) refers to usart1.o(.bss) for UART2_ctl_t
    adc.o(i.ADC1_Config) refers to stm32f0xx_rcc.o(i.RCC_AHBPeriphClockCmd) for RCC_AHBPeriphClockCmd
    adc.o(i.ADC1_Config) refers to stm32f0xx_rcc.o(i.RCC_APB2PeriphClockCmd) for RCC_APB2PeriphClockCmd
    adc.o(i.ADC1_Config) refers to stm32f0xx_gpio.o(i.GPIO_Init) for GPIO_Init
    adc.o(i.ADC1_Config) refers to stm32f0xx_adc.o(i.ADC_DeInit) for ADC_DeInit
    adc.o(i.ADC1_Config) refers to stm32f0xx_adc.o(i.ADC_Init) for ADC_Init
    adc.o(i.ADC1_Config) refers to stm32f0xx_adc.o(i.ADC_ChannelConfig) for ADC_ChannelConfig
    adc.o(i.ADC1_Config) refers to stm32f0xx_adc.o(i.ADC_GetCalibrationFactor) for ADC_GetCalibrationFactor
    adc.o(i.ADC1_Config) refers to stm32f0xx_adc.o(i.ADC_WaitModeCmd) for ADC_WaitModeCmd
    adc.o(i.ADC1_Config) refers to stm32f0xx_adc.o(i.ADC_AutoPowerOffCmd) for ADC_AutoPowerOffCmd
    adc.o(i.ADC1_Config) refers to stm32f0xx_adc.o(i.ADC_Cmd) for ADC_Cmd
    adc.o(i.ADC1_Config) refers to stm32f0xx_adc.o(i.ADC_GetFlagStatus) for ADC_GetFlagStatus
    adc.o(i.ADC1_Config) refers to stm32f0xx_adc.o(i.ADC_StartOfConversion) for ADC_StartOfConversion
    adc.o(i.GetVoltage) refers to adc.o(i.Get_Adc) for Get_Adc
    adc.o(i.GetVoltage) refers to uidiv.o(.text) for __aeabi_uidivmod
    adc.o(i.Get_Adc) refers to stm32f0xx_adc.o(i.ADC_StartOfConversion) for ADC_StartOfConversion
    adc.o(i.Get_Adc) refers to stm32f0xx_adc.o(i.ADC_GetFlagStatus) for ADC_GetFlagStatus
    adc.o(i.Get_Adc) refers to stm32f0xx_adc.o(i.ADC_StopOfConversion) for ADC_StopOfConversion
    adc.o(i.Get_Adc) refers to stm32f0xx_adc.o(i.ADC_GetConversionValue) for ADC_GetConversionValue
    lsm330dlc_driver.o(i.LMS330DLC_AccGetDataRate) refers to lsm330dlc_driver.o(i.LMS330DLC_ReadReg) for LMS330DLC_ReadReg
    lsm330dlc_driver.o(i.LMS330DLC_AccGetDataRate) refers to smscmd.o(i.__ARM_common_switch8) for __ARM_common_switch8
    lsm330dlc_driver.o(i.LMS330DLC_AccSetIrqDuration) refers to lsm330dlc_driver.o(i.LMS330DLC_AccGetDataRate) for LMS330DLC_AccGetDataRate
    lsm330dlc_driver.o(i.LMS330DLC_AccSetIrqDuration) refers to ffltui.o(.text) for __aeabi_ui2f
    lsm330dlc_driver.o(i.LMS330DLC_AccSetIrqDuration) refers to fdiv.o(.text) for __aeabi_fdiv
    lsm330dlc_driver.o(i.LMS330DLC_AccSetIrqDuration) refers to fmul.o(.text) for __aeabi_fmul
    lsm330dlc_driver.o(i.LMS330DLC_AccSetIrqDuration) refers to ffixui.o(.text) for __aeabi_f2uiz
    lsm330dlc_driver.o(i.LMS330DLC_AccSetIrqDuration) refers to lsm330dlc_driver.o(i.LMS330DLC_SetInt1Duration) for LMS330DLC_SetInt1Duration
    lsm330dlc_driver.o(i.LMS330DLC_AccSetThreshold) refers to lsm330dlc_driver.o(i.LMS330DLC_SetInt1Threshold) for LMS330DLC_SetInt1Threshold
    lsm330dlc_driver.o(i.LMS330DLC_FIFOModeEnable) refers to lsm330dlc_driver.o(i.LMS330DLC_ReadReg) for LMS330DLC_ReadReg
    lsm330dlc_driver.o(i.LMS330DLC_FIFOModeEnable) refers to lsm330dlc_driver.o(i.LMS330DLC_WriteReg) for LMS330DLC_WriteReg
    lsm330dlc_driver.o(i.LMS330DLC_Get6DPosition) refers to lsm330dlc_driver.o(i.LMS330DLC_ReadReg) for LMS330DLC_ReadReg
    lsm330dlc_driver.o(i.LMS330DLC_GetAccAxesRaw) refers to lsm330dlc_driver.o(i.LMS330DLC_ReadReg) for LMS330DLC_ReadReg
    lsm330dlc_driver.o(i.LMS330DLC_GetFifoSourceBit) refers to lsm330dlc_driver.o(i.LMS330DLC_ReadReg) for LMS330DLC_ReadReg
    lsm330dlc_driver.o(i.LMS330DLC_GetFifoSourceFSS) refers to lsm330dlc_driver.o(i.LMS330DLC_ReadReg) for LMS330DLC_ReadReg
    lsm330dlc_driver.o(i.LMS330DLC_GetFifoSourceReg) refers to lsm330dlc_driver.o(i.LMS330DLC_ReadReg) for LMS330DLC_ReadReg
    lsm330dlc_driver.o(i.LMS330DLC_GetInt1Src) refers to lsm330dlc_driver.o(i.LMS330DLC_ReadReg) for LMS330DLC_ReadReg
    lsm330dlc_driver.o(i.LMS330DLC_GetInt1SrcBit) refers to lsm330dlc_driver.o(i.LMS330DLC_ReadReg) for LMS330DLC_ReadReg
    lsm330dlc_driver.o(i.LMS330DLC_GetStatusAUX) refers to lsm330dlc_driver.o(i.LMS330DLC_ReadReg) for LMS330DLC_ReadReg
    lsm330dlc_driver.o(i.LMS330DLC_GetStatusBit) refers to lsm330dlc_driver.o(i.LMS330DLC_ReadReg) for LMS330DLC_ReadReg
    lsm330dlc_driver.o(i.LMS330DLC_GetStatusReg) refers to lsm330dlc_driver.o(i.LMS330DLC_ReadReg) for LMS330DLC_ReadReg
    lsm330dlc_driver.o(i.LMS330DLC_GetWHO_AM_I) refers to lsm330dlc_driver.o(i.LMS330DLC_ReadReg) for LMS330DLC_ReadReg
    lsm330dlc_driver.o(i.LMS330DLC_HPFAOI1Enable) refers to lsm330dlc_driver.o(i.LMS330DLC_ReadReg) for LMS330DLC_ReadReg
    lsm330dlc_driver.o(i.LMS330DLC_HPFAOI1Enable) refers to lsm330dlc_driver.o(i.LMS330DLC_WriteReg) for LMS330DLC_WriteReg
    lsm330dlc_driver.o(i.LMS330DLC_HPFAOI2Enable) refers to lsm330dlc_driver.o(i.LMS330DLC_ReadReg) for LMS330DLC_ReadReg
    lsm330dlc_driver.o(i.LMS330DLC_HPFAOI2Enable) refers to lsm330dlc_driver.o(i.LMS330DLC_WriteReg) for LMS330DLC_WriteReg
    lsm330dlc_driver.o(i.LMS330DLC_HPFClickEnable) refers to lsm330dlc_driver.o(i.LMS330DLC_ReadReg) for LMS330DLC_ReadReg
    lsm330dlc_driver.o(i.LMS330DLC_HPFClickEnable) refers to lsm330dlc_driver.o(i.LMS330DLC_WriteReg) for LMS330DLC_WriteReg
    lsm330dlc_driver.o(i.LMS330DLC_ReadReg) refers to i2c_lsm330.o(i.IIC_lsm330_Start) for IIC_lsm330_Start
    lsm330dlc_driver.o(i.LMS330DLC_ReadReg) refers to i2c_lsm330.o(i.IIC_lsm330_Send_Byte) for IIC_lsm330_Send_Byte
    lsm330dlc_driver.o(i.LMS330DLC_ReadReg) refers to i2c_lsm330.o(i.IIC_lsm330_Wait_Ack) for IIC_lsm330_Wait_Ack
    lsm330dlc_driver.o(i.LMS330DLC_ReadReg) refers to i2c_lsm330.o(i.IIC_lsm330_Read_Byte) for IIC_lsm330_Read_Byte
    lsm330dlc_driver.o(i.LMS330DLC_ReadReg) refers to i2c_lsm330.o(i.IIC_lsm330_Stop) for IIC_lsm330_Stop
    lsm330dlc_driver.o(i.LMS330DLC_ResetInt1Latch) refers to lsm330dlc_driver.o(i.LMS330DLC_ReadReg) for LMS330DLC_ReadReg
    lsm330dlc_driver.o(i.LMS330DLC_SetAxis) refers to lsm330dlc_driver.o(i.LMS330DLC_ReadReg) for LMS330DLC_ReadReg
    lsm330dlc_driver.o(i.LMS330DLC_SetAxis) refers to lsm330dlc_driver.o(i.LMS330DLC_WriteReg) for LMS330DLC_WriteReg
    lsm330dlc_driver.o(i.LMS330DLC_SetBLE) refers to lsm330dlc_driver.o(i.LMS330DLC_ReadReg) for LMS330DLC_ReadReg
    lsm330dlc_driver.o(i.LMS330DLC_SetBLE) refers to lsm330dlc_driver.o(i.LMS330DLC_WriteReg) for LMS330DLC_WriteReg
    lsm330dlc_driver.o(i.LMS330DLC_SetFilterDataSel) refers to lsm330dlc_driver.o(i.LMS330DLC_ReadReg) for LMS330DLC_ReadReg
    lsm330dlc_driver.o(i.LMS330DLC_SetFilterDataSel) refers to lsm330dlc_driver.o(i.LMS330DLC_WriteReg) for LMS330DLC_WriteReg
    lsm330dlc_driver.o(i.LMS330DLC_SetFullScale) refers to lsm330dlc_driver.o(i.LMS330DLC_ReadReg) for LMS330DLC_ReadReg
    lsm330dlc_driver.o(i.LMS330DLC_SetFullScale) refers to lsm330dlc_driver.o(i.LMS330DLC_WriteReg) for LMS330DLC_WriteReg
    lsm330dlc_driver.o(i.LMS330DLC_SetHPFCutOFF) refers to lsm330dlc_driver.o(i.LMS330DLC_ReadReg) for LMS330DLC_ReadReg
    lsm330dlc_driver.o(i.LMS330DLC_SetHPFCutOFF) refers to lsm330dlc_driver.o(i.LMS330DLC_WriteReg) for LMS330DLC_WriteReg
    lsm330dlc_driver.o(i.LMS330DLC_SetHPFMode) refers to lsm330dlc_driver.o(i.LMS330DLC_ReadReg) for LMS330DLC_ReadReg
    lsm330dlc_driver.o(i.LMS330DLC_SetHPFMode) refers to lsm330dlc_driver.o(i.LMS330DLC_WriteReg) for LMS330DLC_WriteReg
    lsm330dlc_driver.o(i.LMS330DLC_SetInt1Duration) refers to lsm330dlc_driver.o(i.LMS330DLC_WriteReg) for LMS330DLC_WriteReg
    lsm330dlc_driver.o(i.LMS330DLC_SetInt1Pin) refers to lsm330dlc_driver.o(i.LMS330DLC_ReadReg) for LMS330DLC_ReadReg
    lsm330dlc_driver.o(i.LMS330DLC_SetInt1Pin) refers to lsm330dlc_driver.o(i.LMS330DLC_WriteReg) for LMS330DLC_WriteReg
    lsm330dlc_driver.o(i.LMS330DLC_SetInt1Threshold) refers to lsm330dlc_driver.o(i.LMS330DLC_WriteReg) for LMS330DLC_WriteReg
    lsm330dlc_driver.o(i.LMS330DLC_SetInt2Pin) refers to lsm330dlc_driver.o(i.LMS330DLC_ReadReg) for LMS330DLC_ReadReg
    lsm330dlc_driver.o(i.LMS330DLC_SetInt2Pin) refers to lsm330dlc_driver.o(i.LMS330DLC_WriteReg) for LMS330DLC_WriteReg
    lsm330dlc_driver.o(i.LMS330DLC_SetInt6D4DConfiguration) refers to lsm330dlc_driver.o(i.LMS330DLC_ReadReg) for LMS330DLC_ReadReg
    lsm330dlc_driver.o(i.LMS330DLC_SetInt6D4DConfiguration) refers to lsm330dlc_driver.o(i.LMS330DLC_WriteReg) for LMS330DLC_WriteReg
    lsm330dlc_driver.o(i.LMS330DLC_SetIntConfiguration) refers to lsm330dlc_driver.o(i.LMS330DLC_ReadReg) for LMS330DLC_ReadReg
    lsm330dlc_driver.o(i.LMS330DLC_SetIntConfiguration) refers to lsm330dlc_driver.o(i.LMS330DLC_WriteReg) for LMS330DLC_WriteReg
    lsm330dlc_driver.o(i.LMS330DLC_SetIntMode) refers to lsm330dlc_driver.o(i.LMS330DLC_ReadReg) for LMS330DLC_ReadReg
    lsm330dlc_driver.o(i.LMS330DLC_SetIntMode) refers to lsm330dlc_driver.o(i.LMS330DLC_WriteReg) for LMS330DLC_WriteReg
    lsm330dlc_driver.o(i.LMS330DLC_SetMode) refers to lsm330dlc_driver.o(i.LMS330DLC_ReadReg) for LMS330DLC_ReadReg
    lsm330dlc_driver.o(i.LMS330DLC_SetMode) refers to lsm330dlc_driver.o(i.LMS330DLC_WriteReg) for LMS330DLC_WriteReg
    lsm330dlc_driver.o(i.LMS330DLC_SetMode) refers to lsm330dlc_driver.o(.data) for ODR_old_value
    lsm330dlc_driver.o(i.LMS330DLC_SetODR) refers to lsm330dlc_driver.o(i.LMS330DLC_ReadReg) for LMS330DLC_ReadReg
    lsm330dlc_driver.o(i.LMS330DLC_SetODR) refers to lsm330dlc_driver.o(i.LMS330DLC_WriteReg) for LMS330DLC_WriteReg
    lsm330dlc_driver.o(i.LMS330DLC_SetSPIInterface) refers to lsm330dlc_driver.o(i.LMS330DLC_ReadReg) for LMS330DLC_ReadReg
    lsm330dlc_driver.o(i.LMS330DLC_SetSPIInterface) refers to lsm330dlc_driver.o(i.LMS330DLC_WriteReg) for LMS330DLC_WriteReg
    lsm330dlc_driver.o(i.LMS330DLC_SetTemperature) refers to lsm330dlc_driver.o(i.LMS330DLC_ReadReg) for LMS330DLC_ReadReg
    lsm330dlc_driver.o(i.LMS330DLC_SetTemperature) refers to lsm330dlc_driver.o(i.LMS330DLC_WriteReg) for LMS330DLC_WriteReg
    lsm330dlc_driver.o(i.LMS330DLC_SetTriggerInt) refers to lsm330dlc_driver.o(i.LMS330DLC_ReadReg) for LMS330DLC_ReadReg
    lsm330dlc_driver.o(i.LMS330DLC_SetTriggerInt) refers to lsm330dlc_driver.o(i.LMS330DLC_WriteReg) for LMS330DLC_WriteReg
    lsm330dlc_driver.o(i.LMS330DLC_SetWaterMark) refers to lsm330dlc_driver.o(i.LMS330DLC_ReadReg) for LMS330DLC_ReadReg
    lsm330dlc_driver.o(i.LMS330DLC_SetWaterMark) refers to lsm330dlc_driver.o(i.LMS330DLC_WriteReg) for LMS330DLC_WriteReg
    lsm330dlc_driver.o(i.LMS330DLC_WriteReg) refers to i2c_lsm330.o(i.IIC_lsm330_Start) for IIC_lsm330_Start
    lsm330dlc_driver.o(i.LMS330DLC_WriteReg) refers to i2c_lsm330.o(i.IIC_lsm330_Send_Byte) for IIC_lsm330_Send_Byte
    lsm330dlc_driver.o(i.LMS330DLC_WriteReg) refers to i2c_lsm330.o(i.IIC_lsm330_Wait_Ack) for IIC_lsm330_Wait_Ack
    lsm330dlc_driver.o(i.LMS330DLC_WriteReg) refers to i2c_lsm330.o(i.IIC_lsm330_Stop) for IIC_lsm330_Stop
    lsm330dlc_driver.o(i.LMS330DLC_init) refers to i2c_lsm330.o(i.IIC_lsm330_Init) for IIC_lsm330_Init
    lsm330dlc_driver.o(i.LMS330DLC_init) refers to lsm330dlc_driver.o(i.LMS330DLC_GetWHO_AM_I) for LMS330DLC_GetWHO_AM_I
    lsm330dlc_driver.o(i.LMS330DLC_init) refers to lsm330dlc_driver.o(i.LMS330DLC_SetODR) for LMS330DLC_SetODR
    lsm330dlc_driver.o(i.LMS330DLC_init) refers to lsm330dlc_driver.o(i.LMS330DLC_SetMode) for LMS330DLC_SetMode
    lsm330dlc_driver.o(i.LMS330DLC_init) refers to lsm330dlc_driver.o(i.LMS330DLC_SetFullScale) for LMS330DLC_SetFullScale
    lsm330dlc_driver.o(i.LMS330DLC_init) refers to lsm330dlc_driver.o(i.LMS330DLC_SetAxis) for LMS330DLC_SetAxis
    lsm330dlc_driver.o(i.LMS330DLC_init) refers to lsm330dlc_driver.o(i.LMS330DLC_SetBLE) for LMS330DLC_SetBLE
    lsm330dlc_driver.o(i.LMS330DLC_init) refers to lsm330dlc_driver.o(i.LMS330DLC_HPFClickEnable) for LMS330DLC_HPFClickEnable
    lsm330dlc_driver.o(i.LMS330DLC_init) refers to lsm330dlc_driver.o(i.LMS330DLC_HPFAOI1Enable) for LMS330DLC_HPFAOI1Enable
    lsm330dlc_driver.o(i.LMS330DLC_init) refers to lsm330dlc_driver.o(i.LMS330DLC_HPFAOI2Enable) for LMS330DLC_HPFAOI2Enable
    lsm330dlc_driver.o(i.LMS330DLC_init) refers to lsm330dlc_driver.o(i.LMS330DLC_SetHPFMode) for LMS330DLC_SetHPFMode
    lsm330dlc_driver.o(i.LMS330DLC_init) refers to lsm330dlc_driver.o(i.LMS330DLC_SetHPFCutOFF) for LMS330DLC_SetHPFCutOFF
    lsm330dlc_driver.o(i.LMS330DLC_init) refers to lsm330dlc_driver.o(i.LMS330DLC_SetFilterDataSel) for LMS330DLC_SetFilterDataSel
    lsm330dlc_driver.o(i.LMS330DLC_init) refers to lsm330dlc_driver.o(i.LMS330DLC_SetIntConfiguration) for LMS330DLC_SetIntConfiguration
    lsm330dlc_driver.o(i.LMS330DLC_init) refers to lsm330dlc_driver.o(i.LMS330DLC_SetIntMode) for LMS330DLC_SetIntMode
    lsm330dlc_driver.o(i.LMS330DLC_init) refers to lsm330dlc_driver.o(i.LMS330DLC_AccSetThreshold) for LMS330DLC_AccSetThreshold
    lsm330dlc_driver.o(i.LMS330DLC_init) refers to lsm330dlc_driver.o(i.LMS330DLC_AccSetIrqDuration) for LMS330DLC_AccSetIrqDuration
    lsm330dlc_driver.o(i.LMS330DLC_init) refers to lsm330dlc_driver.o(i.LMS330DLC_ResetInt1Latch) for LMS330DLC_ResetInt1Latch
    lsm330dlc_driver.o(i.LMS330DLC_init) refers to lsm330dlc_driver.o(i.LMS330DLC_FIFOModeEnable) for LMS330DLC_FIFOModeEnable
    lsm330dlc_driver.o(i.LMS330DLC_init) refers to lsm330dlc_driver.o(i.LMS330DLC_SetTriggerInt) for LMS330DLC_SetTriggerInt
    lsm330dlc_driver.o(i.LMS330DLC_init) refers to stm32f0xx_rcc.o(i.RCC_AHBPeriphClockCmd) for RCC_AHBPeriphClockCmd
    lsm330dlc_driver.o(i.LMS330DLC_init) refers to stm32f0xx_gpio.o(i.GPIO_Init) for GPIO_Init
    lsm330dlc_driver.o(i.LMS330DLC_init) refers to stm32f0xx_rcc.o(i.RCC_APB2PeriphClockCmd) for RCC_APB2PeriphClockCmd
    lsm330dlc_driver.o(i.LMS330DLC_init) refers to stm32f0xx_syscfg.o(i.SYSCFG_EXTILineConfig) for SYSCFG_EXTILineConfig
    lsm330dlc_driver.o(i.LMS330DLC_init) refers to stm32f0xx_exti.o(i.EXTI_Init) for EXTI_Init
    lsm330dlc_driver.o(i.LMS330DLC_init) refers to stm32f0xx_misc.o(i.NVIC_Init) for NVIC_Init
    lsm330dlc_driver.o(i.LMS330DLC_init) refers to lsm330dlc_driver.o(i.LMS330DLC_SetInt1Pin) for LMS330DLC_SetInt1Pin
    lsm330dlc_driver.o(i.LMS330DLC_init) refers to lsm330dlc_driver.o(i.LMS330DLC_SetInt2Pin) for LMS330DLC_SetInt2Pin
    lsm330dlc_driver.o(i.get_Pitch) refers to lsm330dlc_driver.o(i.LMS330DLC_GetAccAxesRaw) for LMS330DLC_GetAccAxesRaw
    lsm330dlc_driver.o(i.get_Pitch) refers to fflti.o(.text) for __aeabi_i2f
    lsm330dlc_driver.o(i.get_Pitch) refers to f2d.o(.text) for __aeabi_f2d
    lsm330dlc_driver.o(i.get_Pitch) refers to dmul.o(.text) for __aeabi_dmul
    lsm330dlc_driver.o(i.get_Pitch) refers to d2f.o(.text) for __aeabi_d2f
    lsm330dlc_driver.o(i.get_Pitch) refers to atan2.o(i.atan2) for atan2
    lsm330dlc_driver.o(i.get_Pitch) refers to ddiv.o(.text) for __aeabi_ddiv
    lsm330dlc_driver.o(i.get_Pitch) refers to dadd.o(.text) for __aeabi_dsub
    lsm330dlc_driver.o(i.get_Pitch) refers to cfcmple.o(.text) for __aeabi_cfcmple
    lsm330dlc_driver.o(i.get_Pitch) refers to ffixui.o(.text) for __aeabi_f2uiz
    lsm330dlc_driver.o(i.get_Pitch) refers to lsm330dlc_driver.o(.data) for data11
    lsm330dlc_driver.o(i.set_Impact) refers to lsm330dlc_driver.o(i.LMS330DLC_AccSetThreshold) for LMS330DLC_AccSetThreshold
    lsm330dlc_driver.o(i.set_Impact) refers to lsm330dlc_driver.o(i.LMS330DLC_AccSetIrqDuration) for LMS330DLC_AccSetIrqDuration
    i2c_lsm330.o(i.IIC_lsm330_Ack) refers to stm32f0xx_gpio.o(i.GPIO_ResetBits) for GPIO_ResetBits
    i2c_lsm330.o(i.IIC_lsm330_Ack) refers to i2c_lsm330.o(i.lsm330_SDA_OUT) for lsm330_SDA_OUT
    i2c_lsm330.o(i.IIC_lsm330_Ack) refers to i2c_lsm330.o(i.delayus) for delayus
    i2c_lsm330.o(i.IIC_lsm330_Ack) refers to stm32f0xx_gpio.o(i.GPIO_SetBits) for GPIO_SetBits
    i2c_lsm330.o(i.IIC_lsm330_Init) refers to stm32f0xx_rcc.o(i.RCC_AHBPeriphClockCmd) for RCC_AHBPeriphClockCmd
    i2c_lsm330.o(i.IIC_lsm330_Init) refers to stm32f0xx_gpio.o(i.GPIO_Init) for GPIO_Init
    i2c_lsm330.o(i.IIC_lsm330_Init) refers to i2c_lsm330.o(i.delayus) for delayus
    i2c_lsm330.o(i.IIC_lsm330_Init) refers to stm32f0xx_gpio.o(i.GPIO_SetBits) for GPIO_SetBits
    i2c_lsm330.o(i.IIC_lsm330_NAck) refers to stm32f0xx_gpio.o(i.GPIO_ResetBits) for GPIO_ResetBits
    i2c_lsm330.o(i.IIC_lsm330_NAck) refers to i2c_lsm330.o(i.lsm330_SDA_OUT) for lsm330_SDA_OUT
    i2c_lsm330.o(i.IIC_lsm330_NAck) refers to stm32f0xx_gpio.o(i.GPIO_SetBits) for GPIO_SetBits
    i2c_lsm330.o(i.IIC_lsm330_NAck) refers to i2c_lsm330.o(i.delayus) for delayus
    i2c_lsm330.o(i.IIC_lsm330_Read_Byte) refers to i2c_lsm330.o(i.lsm330_SDA_IN) for lsm330_SDA_IN
    i2c_lsm330.o(i.IIC_lsm330_Read_Byte) refers to stm32f0xx_gpio.o(i.GPIO_ResetBits) for GPIO_ResetBits
    i2c_lsm330.o(i.IIC_lsm330_Read_Byte) refers to i2c_lsm330.o(i.delayus) for delayus
    i2c_lsm330.o(i.IIC_lsm330_Read_Byte) refers to stm32f0xx_gpio.o(i.GPIO_SetBits) for GPIO_SetBits
    i2c_lsm330.o(i.IIC_lsm330_Read_Byte) refers to stm32f0xx_gpio.o(i.GPIO_ReadInputDataBit) for GPIO_ReadInputDataBit
    i2c_lsm330.o(i.IIC_lsm330_Read_Byte) refers to i2c_lsm330.o(i.IIC_lsm330_NAck) for IIC_lsm330_NAck
    i2c_lsm330.o(i.IIC_lsm330_Read_Byte) refers to i2c_lsm330.o(i.IIC_lsm330_Ack) for IIC_lsm330_Ack
    i2c_lsm330.o(i.IIC_lsm330_Send_Byte) refers to i2c_lsm330.o(i.lsm330_SDA_OUT) for lsm330_SDA_OUT
    i2c_lsm330.o(i.IIC_lsm330_Send_Byte) refers to stm32f0xx_gpio.o(i.GPIO_ResetBits) for GPIO_ResetBits
    i2c_lsm330.o(i.IIC_lsm330_Send_Byte) refers to stm32f0xx_gpio.o(i.GPIO_SetBits) for GPIO_SetBits
    i2c_lsm330.o(i.IIC_lsm330_Send_Byte) refers to i2c_lsm330.o(i.delayus) for delayus
    i2c_lsm330.o(i.IIC_lsm330_Start) refers to i2c_lsm330.o(i.lsm330_SDA_OUT) for lsm330_SDA_OUT
    i2c_lsm330.o(i.IIC_lsm330_Start) refers to stm32f0xx_gpio.o(i.GPIO_SetBits) for GPIO_SetBits
    i2c_lsm330.o(i.IIC_lsm330_Start) refers to i2c_lsm330.o(i.delayus) for delayus
    i2c_lsm330.o(i.IIC_lsm330_Start) refers to stm32f0xx_gpio.o(i.GPIO_ResetBits) for GPIO_ResetBits
    i2c_lsm330.o(i.IIC_lsm330_Stop) refers to i2c_lsm330.o(i.lsm330_SDA_OUT) for lsm330_SDA_OUT
    i2c_lsm330.o(i.IIC_lsm330_Stop) refers to stm32f0xx_gpio.o(i.GPIO_ResetBits) for GPIO_ResetBits
    i2c_lsm330.o(i.IIC_lsm330_Stop) refers to i2c_lsm330.o(i.delayus) for delayus
    i2c_lsm330.o(i.IIC_lsm330_Stop) refers to stm32f0xx_gpio.o(i.GPIO_SetBits) for GPIO_SetBits
    i2c_lsm330.o(i.IIC_lsm330_Wait_Ack) refers to i2c_lsm330.o(i.lsm330_SDA_IN) for lsm330_SDA_IN
    i2c_lsm330.o(i.IIC_lsm330_Wait_Ack) refers to stm32f0xx_gpio.o(i.GPIO_SetBits) for GPIO_SetBits
    i2c_lsm330.o(i.IIC_lsm330_Wait_Ack) refers to i2c_lsm330.o(i.delayus) for delayus
    i2c_lsm330.o(i.IIC_lsm330_Wait_Ack) refers to i2c_lsm330.o(i.IIC_lsm330_Stop) for IIC_lsm330_Stop
    i2c_lsm330.o(i.IIC_lsm330_Wait_Ack) refers to stm32f0xx_gpio.o(i.GPIO_ReadInputDataBit) for GPIO_ReadInputDataBit
    i2c_lsm330.o(i.IIC_lsm330_Wait_Ack) refers to stm32f0xx_gpio.o(i.GPIO_ResetBits) for GPIO_ResetBits
    i2c_lsm330.o(i.delayms) refers to stm32f0xx_iwdg.o(i.IWDG_ReloadCounter) for IWDG_ReloadCounter
    i2c_lsm330.o(i.delayms) refers to i2c_lsm330.o(.data) for TimingDelay
    i2c_lsm330.o(i.lsm330_SDA_IN) refers to stm32f0xx_rcc.o(i.RCC_AHBPeriphClockCmd) for RCC_AHBPeriphClockCmd
    i2c_lsm330.o(i.lsm330_SDA_IN) refers to stm32f0xx_gpio.o(i.GPIO_Init) for GPIO_Init
    i2c_lsm330.o(i.lsm330_SDA_OUT) refers to stm32f0xx_rcc.o(i.RCC_AHBPeriphClockCmd) for RCC_AHBPeriphClockCmd
    i2c_lsm330.o(i.lsm330_SDA_OUT) refers to stm32f0xx_gpio.o(i.GPIO_Init) for GPIO_Init
    usart1.o(i.Get_GPS_module) refers to usart1.o(i.ddi_uart_Write) for ddi_uart_Write
    usart1.o(i.Get_GPS_module) refers to i2c_lsm330.o(i.delayms) for delayms
    usart1.o(i.Get_GPS_module) refers to usart1.o(.data) for in_gpsModule
    usart1.o(i.Get_GPS_module) refers to usart1.o(.bss) for UART2_ctl_t
    usart1.o(i.Get_GPS_module) refers to gps.o(.data) for GPS_module
    usart1.o(i.UART0_ReceiveData) refers to i2c_lsm330.o(i.delayms) for delayms
    usart1.o(i.UART0_ReceiveData) refers to usart1.o(.data) for ManualRx0
    usart1.o(i.USART1_IRQHandler) refers to stm32f0xx_usart.o(i.USART_GetITStatus) for USART_GetITStatus
    usart1.o(i.USART1_IRQHandler) refers to stm32f0xx_usart.o(i.USART_ReceiveData) for USART_ReceiveData
    usart1.o(i.USART1_IRQHandler) refers to strstr.o(.text) for strstr
    usart1.o(i.USART1_IRQHandler) refers to memcpya.o(.text) for __aeabi_memcpy
    usart1.o(i.USART1_IRQHandler) refers to stm32f0xx_usart.o(i.USART_ClearITPendingBit) for USART_ClearITPendingBit
    usart1.o(i.USART1_IRQHandler) refers to main.o(.data) for EN_initialize
    usart1.o(i.USART1_IRQHandler) refers to usart1.o(.data) for GPRSCmdCount
    usart1.o(i.USART1_IRQHandler) refers to main.o(.bss) for g_ucGPRSCmdBuffback
    usart1.o(i.USART1_IRQHandler) refers to gprs.o(.data) for in_agps
    usart1.o(i.USART2_IRQHandler) refers to stm32f0xx_usart.o(i.USART_GetITStatus) for USART_GetITStatus
    usart1.o(i.USART2_IRQHandler) refers to stm32f0xx_usart.o(i.USART_ReceiveData) for USART_ReceiveData
    usart1.o(i.USART2_IRQHandler) refers to memseta.o(.text) for __aeabi_memclr4
    usart1.o(i.USART2_IRQHandler) refers to strstr.o(.text) for strstr
    usart1.o(i.USART2_IRQHandler) refers to memcpya.o(.text) for __aeabi_memcpy
    usart1.o(i.USART2_IRQHandler) refers to stm32f0xx_gpio.o(i.GPIO_ResetBits) for GPIO_ResetBits
    usart1.o(i.USART2_IRQHandler) refers to gprs.o(i.asciitospeed) for asciitospeed
    usart1.o(i.USART2_IRQHandler) refers to idiv.o(.text) for __aeabi_idivmod
    usart1.o(i.USART2_IRQHandler) refers to stm32f0xx_gpio.o(i.GPIO_SetBits) for GPIO_SetBits
    usart1.o(i.USART2_IRQHandler) refers to stm32f0xx_usart.o(i.USART_ClearITPendingBit) for USART_ClearITPendingBit
    usart1.o(i.USART2_IRQHandler) refers to usart1.o(.data) for gps_reclen
    usart1.o(i.USART2_IRQHandler) refers to usart1.o(.bss) for UART2_rbuf
    usart1.o(i.USART2_IRQHandler) refers to gps.o(.data) for GPS_module
    usart1.o(i.USART2_IRQHandler) refers to main.o(.data) for gps_gate
    usart1.o(i.USART2_IRQHandler) refers to main.o(.bss) for g_ucNeo6QBuff
    usart1.o(i.UbxConfig) refers to usart1.o(i.ddi_uart_open) for ddi_uart_open
    usart1.o(i.UbxConfig) refers to i2c_lsm330.o(i.delayms) for delayms
    usart1.o(i.UbxConfig) refers to usart1.o(i.ddi_uart_Write) for ddi_uart_Write
    usart1.o(i.UbxConfig) refers to usart1.o(.bss) for UART2_ctl_t
    usart1.o(i.UbxConfig) refers to usart1.o(.data) for GPS_BaudRate_FLAG
    usart1.o(i.ddi_uart1_init) refers to stm32f0xx_rcc.o(i.RCC_APB2PeriphClockCmd) for RCC_APB2PeriphClockCmd
    usart1.o(i.ddi_uart1_init) refers to stm32f0xx_rcc.o(i.RCC_AHBPeriphClockCmd) for RCC_AHBPeriphClockCmd
    usart1.o(i.ddi_uart1_init) refers to stm32f0xx_gpio.o(i.GPIO_PinAFConfig) for GPIO_PinAFConfig
    usart1.o(i.ddi_uart1_init) refers to stm32f0xx_gpio.o(i.GPIO_Init) for GPIO_Init
    usart1.o(i.ddi_uart1_init) refers to stm32f0xx_misc.o(i.NVIC_Init) for NVIC_Init
    usart1.o(i.ddi_uart1_init) refers to stm32f0xx_usart.o(i.USART_Cmd) for USART_Cmd
    usart1.o(i.ddi_uart1_init) refers to usart1.o(.bss) for UART1_ctl_t
    usart1.o(i.ddi_uart2_init) refers to stm32f0xx_rcc.o(i.RCC_APB1PeriphClockCmd) for RCC_APB1PeriphClockCmd
    usart1.o(i.ddi_uart2_init) refers to stm32f0xx_rcc.o(i.RCC_AHBPeriphClockCmd) for RCC_AHBPeriphClockCmd
    usart1.o(i.ddi_uart2_init) refers to stm32f0xx_gpio.o(i.GPIO_PinAFConfig) for GPIO_PinAFConfig
    usart1.o(i.ddi_uart2_init) refers to stm32f0xx_gpio.o(i.GPIO_Init) for GPIO_Init
    usart1.o(i.ddi_uart2_init) refers to stm32f0xx_misc.o(i.NVIC_Init) for NVIC_Init
    usart1.o(i.ddi_uart2_init) refers to stm32f0xx_usart.o(i.USART_Cmd) for USART_Cmd
    usart1.o(i.ddi_uart2_init) refers to usart1.o(.bss) for UART2_ctl_t
    usart1.o(i.ddi_uart_Write) refers to stm32f0xx_usart.o(i.USART_SendData) for USART_SendData
    usart1.o(i.ddi_uart_open) refers to stm32f0xx_usart.o(i.USART_Cmd) for USART_Cmd
    usart1.o(i.ddi_uart_open) refers to stm32f0xx_usart.o(i.USART_ITConfig) for USART_ITConfig
    usart1.o(i.ddi_uart_open) refers to stm32f0xx_usart.o(i.USART_DeInit) for USART_DeInit
    usart1.o(i.ddi_uart_open) refers to stm32f0xx_usart.o(i.USART_Init) for USART_Init
    wdg.o(i.IWDG_Feed) refers to stm32f0xx_iwdg.o(i.IWDG_ReloadCounter) for IWDG_ReloadCounter
    wdg.o(i.IWDG_Init) refers to stm32f0xx_iwdg.o(i.IWDG_WriteAccessCmd) for IWDG_WriteAccessCmd
    wdg.o(i.IWDG_Init) refers to stm32f0xx_iwdg.o(i.IWDG_SetPrescaler) for IWDG_SetPrescaler
    wdg.o(i.IWDG_Init) refers to stm32f0xx_iwdg.o(i.IWDG_SetReload) for IWDG_SetReload
    wdg.o(i.IWDG_Init) refers to stm32f0xx_iwdg.o(i.IWDG_ReloadCounter) for IWDG_ReloadCounter
    wdg.o(i.IWDG_Init) refers to stm32f0xx_iwdg.o(i.IWDG_Enable) for IWDG_Enable
    ddi_norflash.o(i.flash_copy) refers to stm32f0xx_flash.o(i.FLASH_Unlock) for FLASH_Unlock
    ddi_norflash.o(i.flash_copy) refers to stm32f0xx_flash.o(i.FLASH_ClearFlag) for FLASH_ClearFlag
    ddi_norflash.o(i.flash_copy) refers to stm32f0xx_flash.o(i.FLASH_ErasePage) for FLASH_ErasePage
    ddi_norflash.o(i.flash_copy) refers to stm32f0xx_flash.o(i.FLASH_ProgramWord) for FLASH_ProgramWord
    ddi_norflash.o(i.flash_copy) refers to stm32f0xx_flash.o(i.FLASH_Lock) for FLASH_Lock
    ddi_norflash.o(i.mileage_flash_init) refers to stm32f0xx_flash.o(i.FLASH_Unlock) for FLASH_Unlock
    ddi_norflash.o(i.mileage_flash_init) refers to stm32f0xx_flash.o(i.FLASH_ClearFlag) for FLASH_ClearFlag
    ddi_norflash.o(i.mileage_flash_init) refers to stm32f0xx_flash.o(i.FLASH_ErasePage) for FLASH_ErasePage
    ddi_norflash.o(i.mileage_flash_init) refers to stm32f0xx_flash.o(i.FLASH_ProgramWord) for FLASH_ProgramWord
    ddi_norflash.o(i.mileage_flash_init) refers to stm32f0xx_flash.o(i.FLASH_Lock) for FLASH_Lock
    ddi_norflash.o(i.mileage_flash_init) refers to main.o(.bss) for wzw_mileage
    ddi_norflash.o(i.mileage_init) refers to ddi_norflash.o(i.flash_copy) for flash_copy
    ddi_norflash.o(i.mileage_init) refers to ddi_norflash.o(i.mileage_flash_init) for mileage_flash_init
    ddi_norflash.o(i.mileage_init) refers to ddi_norflash.o(i.mileage_read) for mileage_read
    ddi_norflash.o(i.mileage_read) refers to memcpya.o(.text) for __aeabi_memcpy
    ddi_norflash.o(i.mileage_read) refers to main.o(.bss) for wzw_mileage
    ddi_norflash.o(i.mileage_write) refers to stm32f0xx_flash.o(i.FLASH_Unlock) for FLASH_Unlock
    ddi_norflash.o(i.mileage_write) refers to stm32f0xx_flash.o(i.FLASH_ClearFlag) for FLASH_ClearFlag
    ddi_norflash.o(i.mileage_write) refers to stm32f0xx_flash.o(i.FLASH_ErasePage) for FLASH_ErasePage
    ddi_norflash.o(i.mileage_write) refers to stm32f0xx_flash.o(i.FLASH_Lock) for FLASH_Lock
    ddi_norflash.o(i.mileage_write) refers to stm32f0xx_flash.o(i.FLASH_ProgramWord) for FLASH_ProgramWord
    ddi_norflash.o(i.mileage_write) refers to uldiv.o(.text) for __aeabi_uldivmod
    ddi_norflash.o(i.mileage_write) refers to main.o(.bss) for wzw_mileage
    stm32f0xx_adc.o(i.ADC_DeInit) refers to stm32f0xx_rcc.o(i.RCC_APB2PeriphResetCmd) for RCC_APB2PeriphResetCmd
    stm32f0xx_cec.o(i.CEC_DeInit) refers to stm32f0xx_rcc.o(i.RCC_APB1PeriphResetCmd) for RCC_APB1PeriphResetCmd
    stm32f0xx_dac.o(i.DAC_DeInit) refers to stm32f0xx_rcc.o(i.RCC_APB1PeriphResetCmd) for RCC_APB1PeriphResetCmd
    stm32f0xx_flash.o(i.FLASH_EraseAllPages) refers to stm32f0xx_flash.o(i.FLASH_WaitForLastOperation) for FLASH_WaitForLastOperation
    stm32f0xx_flash.o(i.FLASH_ErasePage) refers to stm32f0xx_flash.o(i.FLASH_WaitForLastOperation) for FLASH_WaitForLastOperation
    stm32f0xx_flash.o(i.FLASH_OB_BOOTConfig) refers to stm32f0xx_flash.o(i.FLASH_WaitForLastOperation) for FLASH_WaitForLastOperation
    stm32f0xx_flash.o(i.FLASH_OB_EnableWRP) refers to stm32f0xx_flash.o(i.FLASH_WaitForLastOperation) for FLASH_WaitForLastOperation
    stm32f0xx_flash.o(i.FLASH_OB_Erase) refers to stm32f0xx_flash.o(i.FLASH_OB_GetRDP) for FLASH_OB_GetRDP
    stm32f0xx_flash.o(i.FLASH_OB_Erase) refers to stm32f0xx_flash.o(i.FLASH_WaitForLastOperation) for FLASH_WaitForLastOperation
    stm32f0xx_flash.o(i.FLASH_OB_RDPConfig) refers to stm32f0xx_flash.o(i.FLASH_WaitForLastOperation) for FLASH_WaitForLastOperation
    stm32f0xx_flash.o(i.FLASH_OB_SRAMParityConfig) refers to stm32f0xx_flash.o(i.FLASH_WaitForLastOperation) for FLASH_WaitForLastOperation
    stm32f0xx_flash.o(i.FLASH_OB_UserConfig) refers to stm32f0xx_flash.o(i.FLASH_WaitForLastOperation) for FLASH_WaitForLastOperation
    stm32f0xx_flash.o(i.FLASH_OB_VDDAConfig) refers to stm32f0xx_flash.o(i.FLASH_WaitForLastOperation) for FLASH_WaitForLastOperation
    stm32f0xx_flash.o(i.FLASH_OB_WriteUser) refers to stm32f0xx_flash.o(i.FLASH_WaitForLastOperation) for FLASH_WaitForLastOperation
    stm32f0xx_flash.o(i.FLASH_ProgramHalfWord) refers to stm32f0xx_flash.o(i.FLASH_WaitForLastOperation) for FLASH_WaitForLastOperation
    stm32f0xx_flash.o(i.FLASH_ProgramOptionByteData) refers to stm32f0xx_flash.o(i.FLASH_WaitForLastOperation) for FLASH_WaitForLastOperation
    stm32f0xx_flash.o(i.FLASH_ProgramWord) refers to stm32f0xx_flash.o(i.FLASH_WaitForLastOperation) for FLASH_WaitForLastOperation
    stm32f0xx_flash.o(i.FLASH_WaitForLastOperation) refers to stm32f0xx_flash.o(i.FLASH_GetStatus) for FLASH_GetStatus
    stm32f0xx_gpio.o(i.GPIO_DeInit) refers to stm32f0xx_rcc.o(i.RCC_AHBPeriphResetCmd) for RCC_AHBPeriphResetCmd
    stm32f0xx_i2c.o(i.I2C_DeInit) refers to stm32f0xx_rcc.o(i.RCC_APB1PeriphResetCmd) for RCC_APB1PeriphResetCmd
    stm32f0xx_pwr.o(i.PWR_DeInit) refers to stm32f0xx_rcc.o(i.RCC_APB1PeriphResetCmd) for RCC_APB1PeriphResetCmd
    stm32f0xx_rcc.o(i.RCC_GetClocksFreq) refers to uidiv.o(.text) for __aeabi_uidivmod
    stm32f0xx_rcc.o(i.RCC_GetClocksFreq) refers to stm32f0xx_rcc.o(.data) for APBAHBPrescTable
    stm32f0xx_rcc.o(i.RCC_WaitForHSEStartUp) refers to stm32f0xx_rcc.o(i.RCC_GetFlagStatus) for RCC_GetFlagStatus
    stm32f0xx_rtc.o(i.RTC_DeInit) refers to stm32f0xx_rtc.o(i.RTC_EnterInitMode) for RTC_EnterInitMode
    stm32f0xx_rtc.o(i.RTC_DeInit) refers to stm32f0xx_rtc.o(i.RTC_WaitForSynchro) for RTC_WaitForSynchro
    stm32f0xx_rtc.o(i.RTC_GetAlarm) refers to stm32f0xx_rtc.o(i.RTC_Bcd2ToByte) for RTC_Bcd2ToByte
    stm32f0xx_rtc.o(i.RTC_GetDate) refers to stm32f0xx_rtc.o(i.RTC_Bcd2ToByte) for RTC_Bcd2ToByte
    stm32f0xx_rtc.o(i.RTC_GetTime) refers to stm32f0xx_rtc.o(i.RTC_Bcd2ToByte) for RTC_Bcd2ToByte
    stm32f0xx_rtc.o(i.RTC_GetTimeStamp) refers to stm32f0xx_rtc.o(i.RTC_Bcd2ToByte) for RTC_Bcd2ToByte
    stm32f0xx_rtc.o(i.RTC_Init) refers to stm32f0xx_rtc.o(i.RTC_EnterInitMode) for RTC_EnterInitMode
    stm32f0xx_rtc.o(i.RTC_Init) refers to stm32f0xx_rtc.o(i.RTC_ExitInitMode) for RTC_ExitInitMode
    stm32f0xx_rtc.o(i.RTC_RefClockCmd) refers to stm32f0xx_rtc.o(i.RTC_EnterInitMode) for RTC_EnterInitMode
    stm32f0xx_rtc.o(i.RTC_RefClockCmd) refers to stm32f0xx_rtc.o(i.RTC_ExitInitMode) for RTC_ExitInitMode
    stm32f0xx_rtc.o(i.RTC_SetAlarm) refers to stm32f0xx_rtc.o(i.RTC_Bcd2ToByte) for RTC_Bcd2ToByte
    stm32f0xx_rtc.o(i.RTC_SetAlarm) refers to stm32f0xx_rtc.o(i.RTC_ByteToBcd2) for RTC_ByteToBcd2
    stm32f0xx_rtc.o(i.RTC_SetDate) refers to stm32f0xx_rtc.o(i.RTC_Bcd2ToByte) for RTC_Bcd2ToByte
    stm32f0xx_rtc.o(i.RTC_SetDate) refers to stm32f0xx_rtc.o(i.RTC_ByteToBcd2) for RTC_ByteToBcd2
    stm32f0xx_rtc.o(i.RTC_SetDate) refers to stm32f0xx_rtc.o(i.RTC_EnterInitMode) for RTC_EnterInitMode
    stm32f0xx_rtc.o(i.RTC_SetDate) refers to stm32f0xx_rtc.o(i.RTC_ExitInitMode) for RTC_ExitInitMode
    stm32f0xx_rtc.o(i.RTC_SetDate) refers to stm32f0xx_rtc.o(i.RTC_WaitForSynchro) for RTC_WaitForSynchro
    stm32f0xx_rtc.o(i.RTC_SetTime) refers to stm32f0xx_rtc.o(i.RTC_Bcd2ToByte) for RTC_Bcd2ToByte
    stm32f0xx_rtc.o(i.RTC_SetTime) refers to stm32f0xx_rtc.o(i.RTC_ByteToBcd2) for RTC_ByteToBcd2
    stm32f0xx_rtc.o(i.RTC_SetTime) refers to stm32f0xx_rtc.o(i.RTC_EnterInitMode) for RTC_EnterInitMode
    stm32f0xx_rtc.o(i.RTC_SetTime) refers to stm32f0xx_rtc.o(i.RTC_ExitInitMode) for RTC_ExitInitMode
    stm32f0xx_rtc.o(i.RTC_SetTime) refers to stm32f0xx_rtc.o(i.RTC_WaitForSynchro) for RTC_WaitForSynchro
    stm32f0xx_rtc.o(i.RTC_SynchroShiftConfig) refers to stm32f0xx_rtc.o(i.RTC_WaitForSynchro) for RTC_WaitForSynchro
    stm32f0xx_spi.o(i.I2S_Init) refers to stm32f0xx_rcc.o(i.RCC_GetClocksFreq) for RCC_GetClocksFreq
    stm32f0xx_spi.o(i.I2S_Init) refers to uidiv.o(.text) for __aeabi_uidivmod
    stm32f0xx_spi.o(i.SPI_I2S_DeInit) refers to stm32f0xx_rcc.o(i.RCC_APB2PeriphResetCmd) for RCC_APB2PeriphResetCmd
    stm32f0xx_spi.o(i.SPI_I2S_DeInit) refers to stm32f0xx_rcc.o(i.RCC_APB1PeriphResetCmd) for RCC_APB1PeriphResetCmd
    stm32f0xx_tim.o(i.TIM_DeInit) refers to stm32f0xx_rcc.o(i.RCC_APB2PeriphResetCmd) for RCC_APB2PeriphResetCmd
    stm32f0xx_tim.o(i.TIM_DeInit) refers to stm32f0xx_rcc.o(i.RCC_APB1PeriphResetCmd) for RCC_APB1PeriphResetCmd
    stm32f0xx_tim.o(i.TIM_ETRClockMode1Config) refers to stm32f0xx_tim.o(i.TIM_ETRConfig) for TIM_ETRConfig
    stm32f0xx_tim.o(i.TIM_ETRClockMode2Config) refers to stm32f0xx_tim.o(i.TIM_ETRConfig) for TIM_ETRConfig
    stm32f0xx_tim.o(i.TIM_ICInit) refers to stm32f0xx_tim.o(i.TI1_Config) for TI1_Config
    stm32f0xx_tim.o(i.TIM_ICInit) refers to stm32f0xx_tim.o(i.TIM_SetIC1Prescaler) for TIM_SetIC1Prescaler
    stm32f0xx_tim.o(i.TIM_ICInit) refers to stm32f0xx_tim.o(i.TI2_Config) for TI2_Config
    stm32f0xx_tim.o(i.TIM_ICInit) refers to stm32f0xx_tim.o(i.TIM_SetIC2Prescaler) for TIM_SetIC2Prescaler
    stm32f0xx_tim.o(i.TIM_ICInit) refers to stm32f0xx_tim.o(i.TI3_Config) for TI3_Config
    stm32f0xx_tim.o(i.TIM_ICInit) refers to stm32f0xx_tim.o(i.TIM_SetIC3Prescaler) for TIM_SetIC3Prescaler
    stm32f0xx_tim.o(i.TIM_ICInit) refers to stm32f0xx_tim.o(i.TI4_Config) for TI4_Config
    stm32f0xx_tim.o(i.TIM_ICInit) refers to stm32f0xx_tim.o(i.TIM_SetIC4Prescaler) for TIM_SetIC4Prescaler
    stm32f0xx_tim.o(i.TIM_ITRxExternalClockConfig) refers to stm32f0xx_tim.o(i.TIM_SelectInputTrigger) for TIM_SelectInputTrigger
    stm32f0xx_tim.o(i.TIM_PWMIConfig) refers to stm32f0xx_tim.o(i.TI1_Config) for TI1_Config
    stm32f0xx_tim.o(i.TIM_PWMIConfig) refers to stm32f0xx_tim.o(i.TIM_SetIC1Prescaler) for TIM_SetIC1Prescaler
    stm32f0xx_tim.o(i.TIM_PWMIConfig) refers to stm32f0xx_tim.o(i.TI2_Config) for TI2_Config
    stm32f0xx_tim.o(i.TIM_PWMIConfig) refers to stm32f0xx_tim.o(i.TIM_SetIC2Prescaler) for TIM_SetIC2Prescaler
    stm32f0xx_tim.o(i.TIM_TIxExternalClockConfig) refers to stm32f0xx_tim.o(i.TI2_Config) for TI2_Config
    stm32f0xx_tim.o(i.TIM_TIxExternalClockConfig) refers to stm32f0xx_tim.o(i.TI1_Config) for TI1_Config
    stm32f0xx_tim.o(i.TIM_TIxExternalClockConfig) refers to stm32f0xx_tim.o(i.TIM_SelectInputTrigger) for TIM_SelectInputTrigger
    stm32f0xx_usart.o(i.USART_DeInit) refers to stm32f0xx_rcc.o(i.RCC_APB2PeriphResetCmd) for RCC_APB2PeriphResetCmd
    stm32f0xx_usart.o(i.USART_DeInit) refers to stm32f0xx_rcc.o(i.RCC_APB1PeriphResetCmd) for RCC_APB1PeriphResetCmd
    stm32f0xx_usart.o(i.USART_Init) refers to stm32f0xx_rcc.o(i.RCC_GetClocksFreq) for RCC_GetClocksFreq
    stm32f0xx_usart.o(i.USART_Init) refers to uidiv.o(.text) for __aeabi_uidivmod
    stm32f0xx_wwdg.o(i.WWDG_DeInit) refers to stm32f0xx_rcc.o(i.RCC_APB1PeriphResetCmd) for RCC_APB1PeriphResetCmd
    atan2.o(i.__softfp_atan2) refers (Special) to iusefp.o(.text) for __I$use$fp
    atan2.o(i.__softfp_atan2) refers to atan2.o(i.atan2) for atan2
    atan2.o(i.atan2) refers (Special) to iusefp.o(.text) for __I$use$fp
    atan2.o(i.atan2) refers to dadd.o(.text) for __aeabi_dadd
    atan2.o(i.atan2) refers to atan.o(i.atan) for atan
    atan2.o(i.atan2) refers to ddiv.o(.text) for __aeabi_ddiv
    atan2.o(i.atan2) refers to qnan.o(.constdata) for __mathlib_zero
    atan2_x.o(i.____softfp_atan2$lsc) refers (Special) to iusefp.o(.text) for __I$use$fp
    atan2_x.o(i.____softfp_atan2$lsc) refers to atan2_x.o(i.__atan2$lsc) for __atan2$lsc
    atan2_x.o(i.__atan2$lsc) refers (Special) to iusefp.o(.text) for __I$use$fp
    atan2_x.o(i.__atan2$lsc) refers to dadd.o(.text) for __aeabi_dadd
    atan2_x.o(i.__atan2$lsc) refers to atan.o(i.atan) for atan
    atan2_x.o(i.__atan2$lsc) refers to errno.o(i.__set_errno) for __set_errno
    atan2_x.o(i.__atan2$lsc) refers to ddiv.o(.text) for __aeabi_ddiv
    atan2_x.o(i.__atan2$lsc) refers to qnan.o(.constdata) for __mathlib_zero
    entry.o(.ARM.Collect$$$$00000000) refers (Special) to entry10a.o(.ARM.Collect$$$$0000000D) for __rt_final_cpp
    entry.o(.ARM.Collect$$$$00000000) refers (Special) to entry11a.o(.ARM.Collect$$$$0000000F) for __rt_final_exit
    entry.o(.ARM.Collect$$$$00000000) refers (Special) to entry7b.o(.ARM.Collect$$$$00000008) for _main_clock
    entry.o(.ARM.Collect$$$$00000000) refers (Special) to entry8b.o(.ARM.Collect$$$$0000000A) for _main_cpp_init
    entry.o(.ARM.Collect$$$$00000000) refers (Special) to entry9a.o(.ARM.Collect$$$$0000000B) for _main_init
    entry.o(.ARM.Collect$$$$00000000) refers (Special) to entry5.o(.ARM.Collect$$$$00000004) for _main_scatterload
    entry.o(.ARM.Collect$$$$00000000) refers (Special) to entry2.o(.ARM.Collect$$$$00000001) for _main_stk
    idiv.o(.text) refers to uidiv.o(.text) for __aeabi_uidivmod
    uldiv.o(.text) refers to llushr.o(.text) for __aeabi_llsr
    uldiv.o(.text) refers to llshl.o(.text) for __aeabi_llsl
    fmul.o(.text) refers (Special) to iusefp.o(.text) for __I$use$fp
    fdiv.o(.text) refers (Special) to iusefp.o(.text) for __I$use$fp
    fdiv.o(.text) refers to fepilogue.o(.text) for _float_round
    dadd.o(.text) refers (Special) to iusefp.o(.text) for __I$use$fp
    dadd.o(.text) refers to llshl.o(.text) for __aeabi_llsl
    dadd.o(.text) refers to llsshr.o(.text) for __aeabi_lasr
    dadd.o(.text) refers to depilogue.o(.text) for _double_epilogue
    dmul.o(.text) refers (Special) to iusefp.o(.text) for __I$use$fp
    dmul.o(.text) refers to depilogue.o(.text) for _double_epilogue
    ddiv.o(.text) refers (Special) to iusefp.o(.text) for __I$use$fp
    ddiv.o(.text) refers to depilogue.o(.text) for _double_round
    fflti.o(.text) refers (Special) to iusefp.o(.text) for __I$use$fp
    fflti.o(.text) refers to fepilogue.o(.text) for _float_epilogue
    ffltui.o(.text) refers (Special) to iusefp.o(.text) for __I$use$fp
    ffltui.o(.text) refers to fepilogue.o(.text) for _float_epilogue
    ffixui.o(.text) refers (Special) to iusefp.o(.text) for __I$use$fp
    f2d.o(.text) refers (Special) to iusefp.o(.text) for __I$use$fp
    d2f.o(.text) refers (Special) to iusefp.o(.text) for __I$use$fp
    d2f.o(.text) refers to fepilogue.o(.text) for _float_round
    cfcmple.o(.text) refers (Special) to iusefp.o(.text) for __I$use$fp
    atan.o(i.__softfp_atan) refers (Special) to iusefp.o(.text) for __I$use$fp
    atan.o(i.__softfp_atan) refers to atan.o(i.atan) for atan
    atan.o(i.atan) refers (Special) to iusefp.o(.text) for __I$use$fp
    atan.o(i.atan) refers to dscalb.o(.text) for __ARM_scalbn
    atan.o(i.atan) refers to fpclassify.o(i.__ARM_fpclassify) for __ARM_fpclassify
    atan.o(i.atan) refers to dunder.o(i.__mathlib_dbl_underflow) for __mathlib_dbl_underflow
    atan.o(i.atan) refers to dadd.o(.text) for __aeabi_dadd
    atan.o(i.atan) refers to ddiv.o(.text) for __aeabi_ddiv
    atan.o(i.atan) refers to dmul.o(.text) for __aeabi_dmul
    atan.o(i.atan) refers to poly.o(i.__kernel_poly) for __kernel_poly
    atan.o(i.atan) refers to atan.o(.constdata) for .constdata
    atan.o(.constdata) refers (Special) to iusefp.o(.text) for __I$use$fp
    atan_x.o(i.____softfp_atan$lsc) refers (Special) to iusefp.o(.text) for __I$use$fp
    atan_x.o(i.____softfp_atan$lsc) refers to atan_x.o(i.__atan$lsc) for __atan$lsc
    atan_x.o(i.__atan$lsc) refers (Special) to iusefp.o(.text) for __I$use$fp
    atan_x.o(i.__atan$lsc) refers to dscalb.o(.text) for __ARM_scalbn
    atan_x.o(i.__atan$lsc) refers to dadd.o(.text) for __aeabi_dadd
    atan_x.o(i.__atan$lsc) refers to ddiv.o(.text) for __aeabi_ddiv
    atan_x.o(i.__atan$lsc) refers to dmul.o(.text) for __aeabi_dmul
    atan_x.o(i.__atan$lsc) refers to poly.o(i.__kernel_poly) for __kernel_poly
    atan_x.o(i.__atan$lsc) refers to atan_x.o(.constdata) for .constdata
    atan_x.o(.constdata) refers (Special) to iusefp.o(.text) for __I$use$fp
    qnan.o(.constdata) refers (Special) to iusefp.o(.text) for __I$use$fp
    entry2.o(.ARM.Collect$$$$00000001) refers to entry2.o(.ARM.Collect$$$$00002712) for __lit__00000000
    entry2.o(.ARM.Collect$$$$00002712) refers to startup_stm32f0xx.o(STACK) for __initial_sp
    entry2.o(__vectab_stack_and_reset_area) refers to startup_stm32f0xx.o(STACK) for __initial_sp
    entry2.o(__vectab_stack_and_reset_area) refers to entry.o(.ARM.Collect$$$$00000000) for __main
    entry5.o(.ARM.Collect$$$$00000004) refers to init.o(.text) for __scatterload
    entry9a.o(.ARM.Collect$$$$0000000B) refers to main.o(i.main) for main
    entry9b.o(.ARM.Collect$$$$0000000C) refers to main.o(i.main) for main
    errno.o(i.__aeabi_errno_addr) refers to errno.o(.data) for .data
    errno.o(i.__read_errno) refers to errno.o(.data) for .data
    errno.o(i.__set_errno) refers to errno.o(.data) for .data
    depilogue.o(.text) refers to depilogue.o(i.__ARM_clz) for __ARM_clz
    depilogue.o(.text) refers to llshl.o(.text) for __aeabi_llsl
    depilogue.o(.text) refers to llushr.o(.text) for __aeabi_llsr
    dunder.o(i.__mathlib_dbl_underflow) refers to dscalb.o(.text) for __ARM_scalbn
    fpclassify.o(i.__ARM_fpclassify) refers (Special) to iusefp.o(.text) for __I$use$fp
    poly.o(i.__kernel_poly) refers (Special) to iusefp.o(.text) for __I$use$fp
    poly.o(i.__kernel_poly) refers to dmul.o(.text) for __aeabi_dmul
    poly.o(i.__kernel_poly) refers to dadd.o(.text) for __aeabi_dadd
    init.o(.text) refers to entry5.o(.ARM.Collect$$$$00000004) for __main_after_scatterload


==============================================================================

Removing Unused input sections from the image.

    Removing stm32f0_discovery.o(.emb_text), (8 bytes).
    Removing stm32f0_discovery.o(i.STM_EVAL_LEDInit), (136 bytes).
    Removing stm32f0_discovery.o(i.STM_EVAL_LEDOff), (24 bytes).
    Removing stm32f0_discovery.o(i.STM_EVAL_LEDOn), (24 bytes).
    Removing stm32f0_discovery.o(i.STM_EVAL_LEDToggle), (36 bytes).
    Removing stm32f0_discovery.o(i.STM_EVAL_PBGetState), (32 bytes).
    Removing stm32f0_discovery.o(i.STM_EVAL_PBInit), (172 bytes).
    Removing stm32f0_discovery.o(.constdata), (16 bytes).
    Removing stm32f0_discovery.o(.data), (4 bytes).
    Removing startup_stm32f0xx.o(HEAP), (2 bytes).
    Removing smscmd.o(.emb_text), (8 bytes).
    Removing smscmd.o(i.Cmd_chinese_Position), (92 bytes).
    Removing smscmd.o(i.set_ascii0), (20 bytes).
    Removing stm32f0xx_it.o(.emb_text), (8 bytes).
    Removing system_stm32f0xx.o(.emb_text), (8 bytes).
    Removing system_stm32f0xx.o(i.SystemCoreClockUpdate), (176 bytes).
    Removing gprs.o(.emb_text), (8 bytes).
    Removing gprs.o(i.asciitolongitude), (144 bytes).
    Removing gprs.o(i.intstr), (42 bytes).
    Removing gprs.o(i.strstrb562), (42 bytes).
    Removing gps.o(.emb_text), (8 bytes).
    Removing gsm.o(.emb_text), (8 bytes).
    Removing gsm.o(i.CallNum), (60 bytes).
    Removing gsm.o(i.DebugOut), (2 bytes).
    Removing gsm.o(i.DelDealedSMS), (88 bytes).
    Removing gsm.o(i.GC65_QINDI), (100 bytes).
    Removing gsm.o(i.GC65_QIRD), (108 bytes).
    Removing gsm.o(i.StopGPRS), (2 bytes).
    Removing gsm.o(i.UDPSendData), (300 bytes).
    Removing gsm.o(i.WaitGSMOK), (2 bytes).
    Removing gsm.o(i.get_ASCII_TIM), (96 bytes).
    Removing gsm.o(i.get_gps_mesg_ascii), (164 bytes).
    Removing gsm.o(i.hex2acsii_u8), (38 bytes).
    Removing led.o(.emb_text), (8 bytes).
    Removing led.o(i.get_SHAKE_status), (24 bytes).
    Removing led.o(i.set_GSM_POWERON), (32 bytes).
    Removing led.o(.data), (24 bytes).
    Removing main.o(.emb_text), (8 bytes).
    Removing main.o(i.Delay), (24 bytes).
    Removing main.o(i.SysTick_Configuration), (44 bytes).
    Removing set_system_use_uart.o(.emb_text), (8 bytes).
    Removing set_system_use_uart.o(i.ddi_send_Number_registed_Failed), (60 bytes).
    Removing adc.o(.emb_text), (8 bytes).
    Removing adc.o(.data), (6 bytes).
    Removing lsm330dlc_driver.o(.emb_text), (8 bytes).
    Removing lsm330dlc_driver.o(i.LMS330DLC_FIFOModeEnable), (520 bytes).
    Removing lsm330dlc_driver.o(i.LMS330DLC_Get6DPosition), (104 bytes).
    Removing lsm330dlc_driver.o(i.LMS330DLC_GetAccAxesRaw), (120 bytes).
    Removing lsm330dlc_driver.o(i.LMS330DLC_GetFifoSourceBit), (120 bytes).
    Removing lsm330dlc_driver.o(i.LMS330DLC_GetFifoSourceFSS), (38 bytes).
    Removing lsm330dlc_driver.o(i.LMS330DLC_GetFifoSourceReg), (22 bytes).
    Removing lsm330dlc_driver.o(i.LMS330DLC_GetInt1Src), (22 bytes).
    Removing lsm330dlc_driver.o(i.LMS330DLC_GetInt1SrcBit), (234 bytes).
    Removing lsm330dlc_driver.o(i.LMS330DLC_GetStatusAUX), (22 bytes).
    Removing lsm330dlc_driver.o(i.LMS330DLC_GetStatusBit), (268 bytes).
    Removing lsm330dlc_driver.o(i.LMS330DLC_GetStatusReg), (22 bytes).
    Removing lsm330dlc_driver.o(i.LMS330DLC_GetWHO_AM_I), (22 bytes).
    Removing lsm330dlc_driver.o(i.LMS330DLC_HPFAOI1Enable), (54 bytes).
    Removing lsm330dlc_driver.o(i.LMS330DLC_HPFAOI2Enable), (60 bytes).
    Removing lsm330dlc_driver.o(i.LMS330DLC_HPFClickEnable), (60 bytes).
    Removing lsm330dlc_driver.o(i.LMS330DLC_ResetInt1Latch), (20 bytes).
    Removing lsm330dlc_driver.o(i.LMS330DLC_SetAxis), (60 bytes).
    Removing lsm330dlc_driver.o(i.LMS330DLC_SetBLE), (60 bytes).
    Removing lsm330dlc_driver.o(i.LMS330DLC_SetFilterDataSel), (60 bytes).
    Removing lsm330dlc_driver.o(i.LMS330DLC_SetFullScale), (60 bytes).
    Removing lsm330dlc_driver.o(i.LMS330DLC_SetHPFCutOFF), (68 bytes).
    Removing lsm330dlc_driver.o(i.LMS330DLC_SetHPFMode), (60 bytes).
    Removing lsm330dlc_driver.o(i.LMS330DLC_SetInt1Pin), (48 bytes).
    Removing lsm330dlc_driver.o(i.LMS330DLC_SetInt2Pin), (48 bytes).
    Removing lsm330dlc_driver.o(i.LMS330DLC_SetInt6D4DConfiguration), (186 bytes).
    Removing lsm330dlc_driver.o(i.LMS330DLC_SetIntConfiguration), (54 bytes).
    Removing lsm330dlc_driver.o(i.LMS330DLC_SetIntMode), (60 bytes).
    Removing lsm330dlc_driver.o(i.LMS330DLC_SetMode), (212 bytes).
    Removing lsm330dlc_driver.o(i.LMS330DLC_SetODR), (60 bytes).
    Removing lsm330dlc_driver.o(i.LMS330DLC_SetSPIInterface), (54 bytes).
    Removing lsm330dlc_driver.o(i.LMS330DLC_SetTemperature), (60 bytes).
    Removing lsm330dlc_driver.o(i.LMS330DLC_SetTriggerInt), (60 bytes).
    Removing lsm330dlc_driver.o(i.LMS330DLC_SetWaterMark), (62 bytes).
    Removing lsm330dlc_driver.o(i.LMS330DLC_init), (288 bytes).
    Removing lsm330dlc_driver.o(i.get_Pitch), (264 bytes).
    Removing lsm330dlc_driver.o(.data), (10 bytes).
    Removing i2c_lsm330.o(.emb_text), (8 bytes).
    Removing i2c_lsm330.o(i.IIC_lsm330_Init), (96 bytes).
    Removing usart1.o(.emb_text), (8 bytes).
    Removing usart1.o(.constdata), (156 bytes).
    Removing wdg.o(.emb_text), (8 bytes).
    Removing ddi_norflash.o(.emb_text), (8 bytes).
    Removing stm32f0xx_adc.o(.emb_text), (8 bytes).
    Removing stm32f0xx_adc.o(i.ADC_AnalogWatchdogCmd), (28 bytes).
    Removing stm32f0xx_adc.o(i.ADC_AnalogWatchdogSingleChannelCmd), (28 bytes).
    Removing stm32f0xx_adc.o(i.ADC_AnalogWatchdogSingleChannelConfig), (28 bytes).
    Removing stm32f0xx_adc.o(i.ADC_AnalogWatchdogThresholdsConfig), (8 bytes).
    Removing stm32f0xx_adc.o(i.ADC_ClearFlag), (4 bytes).
    Removing stm32f0xx_adc.o(i.ADC_ClearITPendingBit), (4 bytes).
    Removing stm32f0xx_adc.o(i.ADC_ContinuousModeCmd), (28 bytes).
    Removing stm32f0xx_adc.o(i.ADC_DMACmd), (24 bytes).
    Removing stm32f0xx_adc.o(i.ADC_DMARequestModeConfig), (16 bytes).
    Removing stm32f0xx_adc.o(i.ADC_DiscModeCmd), (28 bytes).
    Removing stm32f0xx_adc.o(i.ADC_GetITStatus), (32 bytes).
    Removing stm32f0xx_adc.o(i.ADC_ITConfig), (20 bytes).
    Removing stm32f0xx_adc.o(i.ADC_JitterCmd), (20 bytes).
    Removing stm32f0xx_adc.o(i.ADC_OverrunModeCmd), (28 bytes).
    Removing stm32f0xx_adc.o(i.ADC_StructInit), (16 bytes).
    Removing stm32f0xx_adc.o(i.ADC_TempSensorCmd), (40 bytes).
    Removing stm32f0xx_adc.o(i.ADC_VbatCmd), (40 bytes).
    Removing stm32f0xx_adc.o(i.ADC_VrefintCmd), (40 bytes).
    Removing stm32f0xx_cec.o(.emb_text), (8 bytes).
    Removing stm32f0xx_cec.o(i.CEC_ClearFlag), (12 bytes).
    Removing stm32f0xx_cec.o(i.CEC_ClearITPendingBit), (12 bytes).
    Removing stm32f0xx_cec.o(i.CEC_Cmd), (36 bytes).
    Removing stm32f0xx_cec.o(i.CEC_DeInit), (22 bytes).
    Removing stm32f0xx_cec.o(i.CEC_EndOfMessage), (20 bytes).
    Removing stm32f0xx_cec.o(i.CEC_GetFlagStatus), (24 bytes).
    Removing stm32f0xx_cec.o(i.CEC_GetITStatus), (40 bytes).
    Removing stm32f0xx_cec.o(i.CEC_ITConfig), (36 bytes).
    Removing stm32f0xx_cec.o(i.CEC_Init), (52 bytes).
    Removing stm32f0xx_cec.o(i.CEC_ListenModeCmd), (40 bytes).
    Removing stm32f0xx_cec.o(i.CEC_OwnAddressClear), (12 bytes).
    Removing stm32f0xx_cec.o(i.CEC_OwnAddressConfig), (28 bytes).
    Removing stm32f0xx_cec.o(i.CEC_ReceiveData), (12 bytes).
    Removing stm32f0xx_cec.o(i.CEC_SendData), (12 bytes).
    Removing stm32f0xx_cec.o(i.CEC_StartOfMessage), (20 bytes).
    Removing stm32f0xx_cec.o(i.CEC_StructInit), (18 bytes).
    Removing stm32f0xx_comp.o(.emb_text), (8 bytes).
    Removing stm32f0xx_comp.o(i.COMP_Cmd), (40 bytes).
    Removing stm32f0xx_comp.o(i.COMP_DeInit), (12 bytes).
    Removing stm32f0xx_comp.o(i.COMP_GetOutputLevel), (32 bytes).
    Removing stm32f0xx_comp.o(i.COMP_Init), (56 bytes).
    Removing stm32f0xx_comp.o(i.COMP_LockConfig), (24 bytes).
    Removing stm32f0xx_comp.o(i.COMP_StructInit), (16 bytes).
    Removing stm32f0xx_comp.o(i.COMP_SwitchCmd), (36 bytes).
    Removing stm32f0xx_comp.o(i.COMP_WindowCmd), (40 bytes).
    Removing stm32f0xx_crc.o(.emb_text), (8 bytes).
    Removing stm32f0xx_crc.o(i.CRC_CalcBlockCRC), (36 bytes).
    Removing stm32f0xx_crc.o(i.CRC_CalcCRC), (16 bytes).
    Removing stm32f0xx_crc.o(i.CRC_DeInit), (28 bytes).
    Removing stm32f0xx_crc.o(i.CRC_GetCRC), (12 bytes).
    Removing stm32f0xx_crc.o(i.CRC_GetIDRegister), (12 bytes).
    Removing stm32f0xx_crc.o(i.CRC_ResetDR), (12 bytes).
    Removing stm32f0xx_crc.o(i.CRC_ReverseInputDataSelect), (32 bytes).
    Removing stm32f0xx_crc.o(i.CRC_ReverseOutputDataCmd), (36 bytes).
    Removing stm32f0xx_crc.o(i.CRC_SetIDRegister), (12 bytes).
    Removing stm32f0xx_crc.o(i.CRC_SetInitRegister), (12 bytes).
    Removing stm32f0xx_dac.o(.emb_text), (8 bytes).
    Removing stm32f0xx_dac.o(i.DAC_ClearFlag), (16 bytes).
    Removing stm32f0xx_dac.o(i.DAC_ClearITPendingBit), (16 bytes).
    Removing stm32f0xx_dac.o(i.DAC_Cmd), (40 bytes).
    Removing stm32f0xx_dac.o(i.DAC_DMACmd), (44 bytes).
    Removing stm32f0xx_dac.o(i.DAC_DeInit), (22 bytes).
    Removing stm32f0xx_dac.o(i.DAC_GetDataOutputValue), (36 bytes).
    Removing stm32f0xx_dac.o(i.DAC_GetFlagStatus), (32 bytes).
    Removing stm32f0xx_dac.o(i.DAC_GetITStatus), (48 bytes).
    Removing stm32f0xx_dac.o(i.DAC_ITConfig), (44 bytes).
    Removing stm32f0xx_dac.o(i.DAC_Init), (44 bytes).
    Removing stm32f0xx_dac.o(i.DAC_SetChannel1Data), (32 bytes).
    Removing stm32f0xx_dac.o(i.DAC_SoftwareTriggerCmd), (48 bytes).
    Removing stm32f0xx_dac.o(i.DAC_StructInit), (8 bytes).
    Removing stm32f0xx_dbgmcu.o(.emb_text), (8 bytes).
    Removing stm32f0xx_dbgmcu.o(i.DBGMCU_APB1PeriphConfig), (32 bytes).
    Removing stm32f0xx_dbgmcu.o(i.DBGMCU_APB2PeriphConfig), (32 bytes).
    Removing stm32f0xx_dbgmcu.o(i.DBGMCU_Config), (32 bytes).
    Removing stm32f0xx_dbgmcu.o(i.DBGMCU_GetDEVID), (16 bytes).
    Removing stm32f0xx_dbgmcu.o(i.DBGMCU_GetREVID), (12 bytes).
    Removing stm32f0xx_dma.o(.emb_text), (8 bytes).
    Removing stm32f0xx_dma.o(i.DMA_ClearFlag), (12 bytes).
    Removing stm32f0xx_dma.o(i.DMA_ClearITPendingBit), (12 bytes).
    Removing stm32f0xx_dma.o(i.DMA_Cmd), (28 bytes).
    Removing stm32f0xx_dma.o(i.DMA_DeInit), (160 bytes).
    Removing stm32f0xx_dma.o(i.DMA_GetCurrDataCounter), (8 bytes).
    Removing stm32f0xx_dma.o(i.DMA_GetFlagStatus), (24 bytes).
    Removing stm32f0xx_dma.o(i.DMA_GetITStatus), (24 bytes).
    Removing stm32f0xx_dma.o(i.DMA_ITConfig), (20 bytes).
    Removing stm32f0xx_dma.o(i.DMA_Init), (64 bytes).
    Removing stm32f0xx_dma.o(i.DMA_SetCurrDataCounter), (4 bytes).
    Removing stm32f0xx_dma.o(i.DMA_StructInit), (26 bytes).
    Removing stm32f0xx_exti.o(.emb_text), (8 bytes).
    Removing stm32f0xx_exti.o(i.EXTI_ClearFlag), (12 bytes).
    Removing stm32f0xx_exti.o(i.EXTI_DeInit), (32 bytes).
    Removing stm32f0xx_exti.o(i.EXTI_GenerateSWInterrupt), (16 bytes).
    Removing stm32f0xx_exti.o(i.EXTI_GetFlagStatus), (24 bytes).
    Removing stm32f0xx_exti.o(i.EXTI_StructInit), (16 bytes).
    Removing stm32f0xx_flash.o(.emb_text), (8 bytes).
    Removing stm32f0xx_flash.o(i.FLASH_EraseAllPages), (72 bytes).
    Removing stm32f0xx_flash.o(i.FLASH_GetFlagStatus), (24 bytes).
    Removing stm32f0xx_flash.o(i.FLASH_GetPrefetchBufferStatus), (24 bytes).
    Removing stm32f0xx_flash.o(i.FLASH_ITConfig), (32 bytes).
    Removing stm32f0xx_flash.o(i.FLASH_OB_BOOTConfig), (80 bytes).
    Removing stm32f0xx_flash.o(i.FLASH_OB_EnableWRP), (120 bytes).
    Removing stm32f0xx_flash.o(i.FLASH_OB_Erase), (152 bytes).
    Removing stm32f0xx_flash.o(i.FLASH_OB_GetRDP), (24 bytes).
    Removing stm32f0xx_flash.o(i.FLASH_OB_GetUser), (16 bytes).
    Removing stm32f0xx_flash.o(i.FLASH_OB_GetWRP), (12 bytes).
    Removing stm32f0xx_flash.o(i.FLASH_OB_Launch), (20 bytes).
    Removing stm32f0xx_flash.o(i.FLASH_OB_Lock), (20 bytes).
    Removing stm32f0xx_flash.o(i.FLASH_OB_RDPConfig), (144 bytes).
    Removing stm32f0xx_flash.o(i.FLASH_OB_SRAMParityConfig), (80 bytes).
    Removing stm32f0xx_flash.o(i.FLASH_OB_Unlock), (36 bytes).
    Removing stm32f0xx_flash.o(i.FLASH_OB_UserConfig), (88 bytes).
    Removing stm32f0xx_flash.o(i.FLASH_OB_VDDAConfig), (80 bytes).
    Removing stm32f0xx_flash.o(i.FLASH_OB_WriteUser), (80 bytes).
    Removing stm32f0xx_flash.o(i.FLASH_PrefetchBufferCmd), (36 bytes).
    Removing stm32f0xx_flash.o(i.FLASH_ProgramHalfWord), (68 bytes).
    Removing stm32f0xx_flash.o(i.FLASH_ProgramOptionByteData), (72 bytes).
    Removing stm32f0xx_flash.o(i.FLASH_SetLatency), (28 bytes).
    Removing stm32f0xx_gpio.o(.emb_text), (8 bytes).
    Removing stm32f0xx_gpio.o(i.GPIO_DeInit), (148 bytes).
    Removing stm32f0xx_gpio.o(i.GPIO_PinLockConfig), (34 bytes).
    Removing stm32f0xx_gpio.o(i.GPIO_ReadInputData), (6 bytes).
    Removing stm32f0xx_gpio.o(i.GPIO_ReadOutputData), (6 bytes).
    Removing stm32f0xx_gpio.o(i.GPIO_ReadOutputDataBit), (18 bytes).
    Removing stm32f0xx_gpio.o(i.GPIO_StructInit), (24 bytes).
    Removing stm32f0xx_gpio.o(i.GPIO_Write), (4 bytes).
    Removing stm32f0xx_gpio.o(i.GPIO_WriteBit), (12 bytes).
    Removing stm32f0xx_i2c.o(.emb_text), (8 bytes).
    Removing stm32f0xx_i2c.o(i.I2C_10BitAddressHeaderCmd), (28 bytes).
    Removing stm32f0xx_i2c.o(i.I2C_10BitAddressingModeCmd), (28 bytes).
    Removing stm32f0xx_i2c.o(i.I2C_AcknowledgeConfig), (28 bytes).
    Removing stm32f0xx_i2c.o(i.I2C_AutoEndCmd), (28 bytes).
    Removing stm32f0xx_i2c.o(i.I2C_CalculatePEC), (28 bytes).
    Removing stm32f0xx_i2c.o(i.I2C_ClearFlag), (4 bytes).
    Removing stm32f0xx_i2c.o(i.I2C_ClearITPendingBit), (4 bytes).
    Removing stm32f0xx_i2c.o(i.I2C_ClockTimeoutCmd), (28 bytes).
    Removing stm32f0xx_i2c.o(i.I2C_Cmd), (24 bytes).
    Removing stm32f0xx_i2c.o(i.I2C_DMACmd), (20 bytes).
    Removing stm32f0xx_i2c.o(i.I2C_DeInit), (56 bytes).
    Removing stm32f0xx_i2c.o(i.I2C_DualAddressCmd), (28 bytes).
    Removing stm32f0xx_i2c.o(i.I2C_ExtendedClockTimeoutCmd), (26 bytes).
    Removing stm32f0xx_i2c.o(i.I2C_GeneralCallCmd), (28 bytes).
    Removing stm32f0xx_i2c.o(i.I2C_GenerateSTART), (28 bytes).
    Removing stm32f0xx_i2c.o(i.I2C_GenerateSTOP), (28 bytes).
    Removing stm32f0xx_i2c.o(i.I2C_GetAddressMatched), (14 bytes).
    Removing stm32f0xx_i2c.o(i.I2C_GetFlagStatus), (28 bytes).
    Removing stm32f0xx_i2c.o(i.I2C_GetITStatus), (28 bytes).
    Removing stm32f0xx_i2c.o(i.I2C_GetPEC), (8 bytes).
    Removing stm32f0xx_i2c.o(i.I2C_GetTransferDirection), (30 bytes).
    Removing stm32f0xx_i2c.o(i.I2C_ITConfig), (20 bytes).
    Removing stm32f0xx_i2c.o(i.I2C_IdleClockTimeoutCmd), (28 bytes).
    Removing stm32f0xx_i2c.o(i.I2C_Init), (108 bytes).
    Removing stm32f0xx_i2c.o(i.I2C_MasterRequestConfig), (28 bytes).
    Removing stm32f0xx_i2c.o(i.I2C_NumberOfBytesConfig), (28 bytes).
    Removing stm32f0xx_i2c.o(i.I2C_OwnAddress2Config), (36 bytes).
    Removing stm32f0xx_i2c.o(i.I2C_PECRequestCmd), (28 bytes).
    Removing stm32f0xx_i2c.o(i.I2C_ReadRegister), (22 bytes).
    Removing stm32f0xx_i2c.o(i.I2C_ReceiveData), (8 bytes).
    Removing stm32f0xx_i2c.o(i.I2C_ReloadCmd), (28 bytes).
    Removing stm32f0xx_i2c.o(i.I2C_SMBusAlertCmd), (28 bytes).
    Removing stm32f0xx_i2c.o(i.I2C_SendData), (4 bytes).
    Removing stm32f0xx_i2c.o(i.I2C_SlaveAddressConfig), (20 bytes).
    Removing stm32f0xx_i2c.o(i.I2C_SlaveByteControlCmd), (28 bytes).
    Removing stm32f0xx_i2c.o(i.I2C_SoftwareResetCmd), (28 bytes).
    Removing stm32f0xx_i2c.o(i.I2C_StopModeCmd), (28 bytes).
    Removing stm32f0xx_i2c.o(i.I2C_StretchClockCmd), (28 bytes).
    Removing stm32f0xx_i2c.o(i.I2C_StructInit), (24 bytes).
    Removing stm32f0xx_i2c.o(i.I2C_TimeoutAConfig), (20 bytes).
    Removing stm32f0xx_i2c.o(i.I2C_TimeoutBConfig), (32 bytes).
    Removing stm32f0xx_i2c.o(i.I2C_TransferHandling), (44 bytes).
    Removing stm32f0xx_iwdg.o(.emb_text), (8 bytes).
    Removing stm32f0xx_iwdg.o(i.IWDG_GetFlagStatus), (24 bytes).
    Removing stm32f0xx_iwdg.o(i.IWDG_SetWindowValue), (12 bytes).
    Removing stm32f0xx_misc.o(.emb_text), (8 bytes).
    Removing stm32f0xx_misc.o(i.NVIC_SystemLPConfig), (32 bytes).
    Removing stm32f0xx_misc.o(i.SysTick_CLKSourceConfig), (36 bytes).
    Removing stm32f0xx_pwr.o(.emb_text), (8 bytes).
    Removing stm32f0xx_pwr.o(i.PWR_ClearFlag), (20 bytes).
    Removing stm32f0xx_pwr.o(i.PWR_DeInit), (22 bytes).
    Removing stm32f0xx_pwr.o(i.PWR_EnterSTANDBYMode), (48 bytes).
    Removing stm32f0xx_pwr.o(i.PWR_EnterSleepMode), (28 bytes).
    Removing stm32f0xx_pwr.o(i.PWR_GetFlagStatus), (24 bytes).
    Removing stm32f0xx_pwr.o(i.PWR_PVDCmd), (36 bytes).
    Removing stm32f0xx_pwr.o(i.PWR_PVDLevelConfig), (32 bytes).
    Removing stm32f0xx_pwr.o(i.PWR_WakeUpPinCmd), (32 bytes).
    Removing stm32f0xx_rcc.o(.emb_text), (8 bytes).
    Removing stm32f0xx_rcc.o(i.RCC_ADCCLKConfig), (56 bytes).
    Removing stm32f0xx_rcc.o(i.RCC_AHBPeriphResetCmd), (32 bytes).
    Removing stm32f0xx_rcc.o(i.RCC_AdjustHSI14CalibrationValue), (32 bytes).
    Removing stm32f0xx_rcc.o(i.RCC_AdjustHSICalibrationValue), (32 bytes).
    Removing stm32f0xx_rcc.o(i.RCC_CECCLKConfig), (28 bytes).
    Removing stm32f0xx_rcc.o(i.RCC_ClearFlag), (20 bytes).
    Removing stm32f0xx_rcc.o(i.RCC_ClearITPendingBit), (12 bytes).
    Removing stm32f0xx_rcc.o(i.RCC_ClockSecuritySystemCmd), (40 bytes).
    Removing stm32f0xx_rcc.o(i.RCC_DeInit), (116 bytes).
    Removing stm32f0xx_rcc.o(i.RCC_GetITStatus), (24 bytes).
    Removing stm32f0xx_rcc.o(i.RCC_GetSYSCLKSource), (16 bytes).
    Removing stm32f0xx_rcc.o(i.RCC_HCLKConfig), (32 bytes).
    Removing stm32f0xx_rcc.o(i.RCC_HSEConfig), (16 bytes).
    Removing stm32f0xx_rcc.o(i.RCC_HSI14ADCRequestCmd), (36 bytes).
    Removing stm32f0xx_rcc.o(i.RCC_HSI14Cmd), (36 bytes).
    Removing stm32f0xx_rcc.o(i.RCC_HSICmd), (36 bytes).
    Removing stm32f0xx_rcc.o(i.RCC_I2CCLKConfig), (28 bytes).
    Removing stm32f0xx_rcc.o(i.RCC_ITConfig), (32 bytes).
    Removing stm32f0xx_rcc.o(i.RCC_LSEConfig), (40 bytes).
    Removing stm32f0xx_rcc.o(i.RCC_LSEDriveConfig), (28 bytes).
    Removing stm32f0xx_rcc.o(i.RCC_MCOConfig), (12 bytes).
    Removing stm32f0xx_rcc.o(i.RCC_PCLKConfig), (36 bytes).
    Removing stm32f0xx_rcc.o(i.RCC_PLLCmd), (40 bytes).
    Removing stm32f0xx_rcc.o(i.RCC_PLLConfig), (36 bytes).
    Removing stm32f0xx_rcc.o(i.RCC_PREDIV1Config), (28 bytes).
    Removing stm32f0xx_rcc.o(i.RCC_SYSCLKConfig), (28 bytes).
    Removing stm32f0xx_rcc.o(i.RCC_USARTCLKConfig), (28 bytes).
    Removing stm32f0xx_rcc.o(i.RCC_WaitForHSEStartUp), (60 bytes).
    Removing stm32f0xx_rtc.o(.emb_text), (8 bytes).
    Removing stm32f0xx_rtc.o(i.RTC_AlarmStructInit), (22 bytes).
    Removing stm32f0xx_rtc.o(i.RTC_AlarmSubSecondConfig), (40 bytes).
    Removing stm32f0xx_rtc.o(i.RTC_BypassShadowCmd), (52 bytes).
    Removing stm32f0xx_rtc.o(i.RTC_CalibOutputCmd), (56 bytes).
    Removing stm32f0xx_rtc.o(i.RTC_CalibOutputConfig), (44 bytes).
    Removing stm32f0xx_rtc.o(i.RTC_ClearFlag), (32 bytes).
    Removing stm32f0xx_rtc.o(i.RTC_DateStructInit), (14 bytes).
    Removing stm32f0xx_rtc.o(i.RTC_DayLightSavingConfig), (48 bytes).
    Removing stm32f0xx_rtc.o(i.RTC_DeInit), (112 bytes).
    Removing stm32f0xx_rtc.o(i.RTC_GetAlarm), (120 bytes).
    Removing stm32f0xx_rtc.o(i.RTC_GetAlarmSubSecond), (20 bytes).
    Removing stm32f0xx_rtc.o(i.RTC_GetDate), (96 bytes).
    Removing stm32f0xx_rtc.o(i.RTC_GetFlagStatus), (40 bytes).
    Removing stm32f0xx_rtc.o(i.RTC_GetStoreOperation), (16 bytes).
    Removing stm32f0xx_rtc.o(i.RTC_GetSubSecond), (16 bytes).
    Removing stm32f0xx_rtc.o(i.RTC_GetTime), (92 bytes).
    Removing stm32f0xx_rtc.o(i.RTC_GetTimeStamp), (164 bytes).
    Removing stm32f0xx_rtc.o(i.RTC_GetTimeStampSubSecond), (12 bytes).
    Removing stm32f0xx_rtc.o(i.RTC_OutputConfig), (48 bytes).
    Removing stm32f0xx_rtc.o(i.RTC_OutputTypeConfig), (28 bytes).
    Removing stm32f0xx_rtc.o(i.RTC_ReadBackupRegister), (32 bytes).
    Removing stm32f0xx_rtc.o(i.RTC_RefClockCmd), (76 bytes).
    Removing stm32f0xx_rtc.o(i.RTC_SetDate), (200 bytes).
    Removing stm32f0xx_rtc.o(i.RTC_SmoothCalibConfig), (92 bytes).
    Removing stm32f0xx_rtc.o(i.RTC_StructInit), (14 bytes).
    Removing stm32f0xx_rtc.o(i.RTC_SynchroShiftConfig), (116 bytes).
    Removing stm32f0xx_rtc.o(i.RTC_TamperCmd), (32 bytes).
    Removing stm32f0xx_rtc.o(i.RTC_TamperFilterConfig), (28 bytes).
    Removing stm32f0xx_rtc.o(i.RTC_TamperPinsPrechargeDuration), (28 bytes).
    Removing stm32f0xx_rtc.o(i.RTC_TamperPullUpCmd), (40 bytes).
    Removing stm32f0xx_rtc.o(i.RTC_TamperSamplingFreqConfig), (28 bytes).
    Removing stm32f0xx_rtc.o(i.RTC_TamperTriggerConfig), (36 bytes).
    Removing stm32f0xx_rtc.o(i.RTC_TimeStampCmd), (64 bytes).
    Removing stm32f0xx_rtc.o(i.RTC_TimeStampOnTamperDetectionCmd), (36 bytes).
    Removing stm32f0xx_rtc.o(i.RTC_TimeStructInit), (12 bytes).
    Removing stm32f0xx_rtc.o(i.RTC_WriteBackupRegister), (28 bytes).
    Removing stm32f0xx_rtc.o(i.RTC_WriteProtectionCmd), (28 bytes).
    Removing stm32f0xx_spi.o(.emb_text), (8 bytes).
    Removing stm32f0xx_spi.o(i.I2S_Cmd), (32 bytes).
    Removing stm32f0xx_spi.o(i.I2S_Init), (232 bytes).
    Removing stm32f0xx_spi.o(i.I2S_StructInit), (20 bytes).
    Removing stm32f0xx_spi.o(i.SPI_BiDirectionalLineConfig), (32 bytes).
    Removing stm32f0xx_spi.o(i.SPI_CRCLengthConfig), (20 bytes).
    Removing stm32f0xx_spi.o(i.SPI_CalculateCRC), (32 bytes).
    Removing stm32f0xx_spi.o(i.SPI_Cmd), (28 bytes).
    Removing stm32f0xx_spi.o(i.SPI_DataSizeConfig), (24 bytes).
    Removing stm32f0xx_spi.o(i.SPI_GetCRC), (16 bytes).
    Removing stm32f0xx_spi.o(i.SPI_GetCRCPolynomial), (6 bytes).
    Removing stm32f0xx_spi.o(i.SPI_GetReceptionFIFOStatus), (12 bytes).
    Removing stm32f0xx_spi.o(i.SPI_GetTransmissionFIFOStatus), (12 bytes).
    Removing stm32f0xx_spi.o(i.SPI_I2S_ClearFlag), (6 bytes).
    Removing stm32f0xx_spi.o(i.SPI_I2S_DMACmd), (20 bytes).
    Removing stm32f0xx_spi.o(i.SPI_I2S_DeInit), (60 bytes).
    Removing stm32f0xx_spi.o(i.SPI_I2S_GetFlagStatus), (18 bytes).
    Removing stm32f0xx_spi.o(i.SPI_I2S_GetITStatus), (54 bytes).
    Removing stm32f0xx_spi.o(i.SPI_I2S_ITConfig), (34 bytes).
    Removing stm32f0xx_spi.o(i.SPI_I2S_ReceiveData16), (6 bytes).
    Removing stm32f0xx_spi.o(i.SPI_I2S_SendData16), (4 bytes).
    Removing stm32f0xx_spi.o(i.SPI_Init), (88 bytes).
    Removing stm32f0xx_spi.o(i.SPI_LastDMATransferCmd), (20 bytes).
    Removing stm32f0xx_spi.o(i.SPI_NSSInternalSoftwareConfig), (32 bytes).
    Removing stm32f0xx_spi.o(i.SPI_NSSPulseModeCmd), (28 bytes).
    Removing stm32f0xx_spi.o(i.SPI_ReceiveData8), (12 bytes).
    Removing stm32f0xx_spi.o(i.SPI_RxFIFOThresholdConfig), (20 bytes).
    Removing stm32f0xx_spi.o(i.SPI_SSOutputCmd), (28 bytes).
    Removing stm32f0xx_spi.o(i.SPI_SendData8), (10 bytes).
    Removing stm32f0xx_spi.o(i.SPI_StructInit), (30 bytes).
    Removing stm32f0xx_spi.o(i.SPI_TIModeCmd), (28 bytes).
    Removing stm32f0xx_spi.o(i.SPI_TransmitCRC), (12 bytes).
    Removing stm32f0xx_syscfg.o(.emb_text), (8 bytes).
    Removing stm32f0xx_syscfg.o(i.SYSCFG_BreakConfig), (16 bytes).
    Removing stm32f0xx_syscfg.o(i.SYSCFG_ClearFlag), (16 bytes).
    Removing stm32f0xx_syscfg.o(i.SYSCFG_DMAChannelRemapConfig), (32 bytes).
    Removing stm32f0xx_syscfg.o(i.SYSCFG_DeInit), (44 bytes).
    Removing stm32f0xx_syscfg.o(i.SYSCFG_GetFlagStatus), (28 bytes).
    Removing stm32f0xx_syscfg.o(i.SYSCFG_I2CFastModePlusConfig), (32 bytes).
    Removing stm32f0xx_syscfg.o(i.SYSCFG_MemoryRemapConfig), (28 bytes).
    Removing stm32f0xx_tim.o(.emb_text), (8 bytes).
    Removing stm32f0xx_tim.o(i.TI1_Config), (56 bytes).
    Removing stm32f0xx_tim.o(i.TI2_Config), (76 bytes).
    Removing stm32f0xx_tim.o(i.TI3_Config), (72 bytes).
    Removing stm32f0xx_tim.o(i.TI4_Config), (80 bytes).
    Removing stm32f0xx_tim.o(i.TIM_ARRPreloadConfig), (28 bytes).
    Removing stm32f0xx_tim.o(i.TIM_BDTRConfig), (32 bytes).
    Removing stm32f0xx_tim.o(i.TIM_BDTRStructInit), (18 bytes).
    Removing stm32f0xx_tim.o(i.TIM_CCPreloadControl), (28 bytes).
    Removing stm32f0xx_tim.o(i.TIM_CCxCmd), (30 bytes).
    Removing stm32f0xx_tim.o(i.TIM_CCxNCmd), (30 bytes).
    Removing stm32f0xx_tim.o(i.TIM_ClearFlag), (6 bytes).
    Removing stm32f0xx_tim.o(i.TIM_ClearOC1Ref), (24 bytes).
    Removing stm32f0xx_tim.o(i.TIM_ClearOC2Ref), (20 bytes).
    Removing stm32f0xx_tim.o(i.TIM_ClearOC3Ref), (24 bytes).
    Removing stm32f0xx_tim.o(i.TIM_ClearOC4Ref), (20 bytes).
    Removing stm32f0xx_tim.o(i.TIM_CounterModeConfig), (24 bytes).
    Removing stm32f0xx_tim.o(i.TIM_CtrlPWMOutputs), (34 bytes).
    Removing stm32f0xx_tim.o(i.TIM_DMACmd), (20 bytes).
    Removing stm32f0xx_tim.o(i.TIM_DMAConfig), (12 bytes).
    Removing stm32f0xx_tim.o(i.TIM_DeInit), (232 bytes).
    Removing stm32f0xx_tim.o(i.TIM_ETRClockMode1Config), (52 bytes).
    Removing stm32f0xx_tim.o(i.TIM_ETRClockMode2Config), (34 bytes).
    Removing stm32f0xx_tim.o(i.TIM_ETRConfig), (24 bytes).
    Removing stm32f0xx_tim.o(i.TIM_EncoderInterfaceConfig), (68 bytes).
    Removing stm32f0xx_tim.o(i.TIM_ForcedOC1Config), (24 bytes).
    Removing stm32f0xx_tim.o(i.TIM_ForcedOC2Config), (24 bytes).
    Removing stm32f0xx_tim.o(i.TIM_ForcedOC3Config), (24 bytes).
    Removing stm32f0xx_tim.o(i.TIM_ForcedOC4Config), (24 bytes).
    Removing stm32f0xx_tim.o(i.TIM_GenerateEvent), (4 bytes).
    Removing stm32f0xx_tim.o(i.TIM_GetCapture1), (6 bytes).
    Removing stm32f0xx_tim.o(i.TIM_GetCapture2), (6 bytes).
    Removing stm32f0xx_tim.o(i.TIM_GetCapture4), (6 bytes).
    Removing stm32f0xx_tim.o(i.TIM_GetCounter), (6 bytes).
    Removing stm32f0xx_tim.o(i.TIM_GetFlagStatus), (18 bytes).
    Removing stm32f0xx_tim.o(i.TIM_GetPrescaler), (6 bytes).
    Removing stm32f0xx_tim.o(i.TIM_ICInit), (112 bytes).
    Removing stm32f0xx_tim.o(i.TIM_ICStructInit), (18 bytes).
    Removing stm32f0xx_tim.o(i.TIM_ITRxExternalClockConfig), (24 bytes).
    Removing stm32f0xx_tim.o(i.TIM_InternalClockConfig), (16 bytes).
    Removing stm32f0xx_tim.o(i.TIM_OC1FastConfig), (24 bytes).
    Removing stm32f0xx_tim.o(i.TIM_OC1Init), (148 bytes).
    Removing stm32f0xx_tim.o(i.TIM_OC1NPolarityConfig), (24 bytes).
    Removing stm32f0xx_tim.o(i.TIM_OC1PolarityConfig), (24 bytes).
    Removing stm32f0xx_tim.o(i.TIM_OC1PreloadConfig), (24 bytes).
    Removing stm32f0xx_tim.o(i.TIM_OC2FastConfig), (24 bytes).
    Removing stm32f0xx_tim.o(i.TIM_OC2Init), (156 bytes).
    Removing stm32f0xx_tim.o(i.TIM_OC2NPolarityConfig), (24 bytes).
    Removing stm32f0xx_tim.o(i.TIM_OC2PolarityConfig), (24 bytes).
    Removing stm32f0xx_tim.o(i.TIM_OC2PreloadConfig), (24 bytes).
    Removing stm32f0xx_tim.o(i.TIM_OC3FastConfig), (24 bytes).
    Removing stm32f0xx_tim.o(i.TIM_OC3Init), (152 bytes).
    Removing stm32f0xx_tim.o(i.TIM_OC3NPolarityConfig), (24 bytes).
    Removing stm32f0xx_tim.o(i.TIM_OC3PolarityConfig), (24 bytes).
    Removing stm32f0xx_tim.o(i.TIM_OC3PreloadConfig), (24 bytes).
    Removing stm32f0xx_tim.o(i.TIM_OC4FastConfig), (24 bytes).
    Removing stm32f0xx_tim.o(i.TIM_OC4Init), (112 bytes).
    Removing stm32f0xx_tim.o(i.TIM_OC4PolarityConfig), (24 bytes).
    Removing stm32f0xx_tim.o(i.TIM_OC4PreloadConfig), (24 bytes).
    Removing stm32f0xx_tim.o(i.TIM_OCStructInit), (20 bytes).
    Removing stm32f0xx_tim.o(i.TIM_PWMIConfig), (124 bytes).
    Removing stm32f0xx_tim.o(i.TIM_RemapConfig), (6 bytes).
    Removing stm32f0xx_tim.o(i.TIM_SelectCCDMA), (28 bytes).
    Removing stm32f0xx_tim.o(i.TIM_SelectCOM), (28 bytes).
    Removing stm32f0xx_tim.o(i.TIM_SelectHallSensor), (28 bytes).
    Removing stm32f0xx_tim.o(i.TIM_SelectInputTrigger), (24 bytes).
    Removing stm32f0xx_tim.o(i.TIM_SelectMasterSlaveMode), (20 bytes).
    Removing stm32f0xx_tim.o(i.TIM_SelectOCREFClear), (20 bytes).
    Removing stm32f0xx_tim.o(i.TIM_SelectOCxM), (82 bytes).
    Removing stm32f0xx_tim.o(i.TIM_SelectOnePulseMode), (20 bytes).
    Removing stm32f0xx_tim.o(i.TIM_SelectOutputTrigger), (20 bytes).
    Removing stm32f0xx_tim.o(i.TIM_SelectSlaveMode), (20 bytes).
    Removing stm32f0xx_tim.o(i.TIM_SetAutoreload), (4 bytes).
    Removing stm32f0xx_tim.o(i.TIM_SetClockDivision), (20 bytes).
    Removing stm32f0xx_tim.o(i.TIM_SetCompare1), (4 bytes).
    Removing stm32f0xx_tim.o(i.TIM_SetCompare2), (4 bytes).
    Removing stm32f0xx_tim.o(i.TIM_SetCompare4), (4 bytes).
    Removing stm32f0xx_tim.o(i.TIM_SetCounter), (4 bytes).
    Removing stm32f0xx_tim.o(i.TIM_SetIC1Prescaler), (20 bytes).
    Removing stm32f0xx_tim.o(i.TIM_SetIC2Prescaler), (24 bytes).
    Removing stm32f0xx_tim.o(i.TIM_SetIC3Prescaler), (20 bytes).
    Removing stm32f0xx_tim.o(i.TIM_SetIC4Prescaler), (24 bytes).
    Removing stm32f0xx_tim.o(i.TIM_TIxExternalClockConfig), (58 bytes).
    Removing stm32f0xx_tim.o(i.TIM_TimeBaseStructInit), (18 bytes).
    Removing stm32f0xx_tim.o(i.TIM_UpdateDisableConfig), (28 bytes).
    Removing stm32f0xx_tim.o(i.TIM_UpdateRequestConfig), (28 bytes).
    Removing stm32f0xx_usart.o(.emb_text), (8 bytes).
    Removing stm32f0xx_usart.o(i.USART_AddressDetectionConfig), (16 bytes).
    Removing stm32f0xx_usart.o(i.USART_AutoBaudRateCmd), (28 bytes).
    Removing stm32f0xx_usart.o(i.USART_AutoBaudRateConfig), (18 bytes).
    Removing stm32f0xx_usart.o(i.USART_AutoBaudRateNewRequest), (12 bytes).
    Removing stm32f0xx_usart.o(i.USART_ClearFlag), (4 bytes).
    Removing stm32f0xx_usart.o(i.USART_ClockInit), (36 bytes).
    Removing stm32f0xx_usart.o(i.USART_ClockStructInit), (12 bytes).
    Removing stm32f0xx_usart.o(i.USART_DECmd), (28 bytes).
    Removing stm32f0xx_usart.o(i.USART_DEPolarityConfig), (18 bytes).
    Removing stm32f0xx_usart.o(i.USART_DMACmd), (20 bytes).
    Removing stm32f0xx_usart.o(i.USART_DMAReceptionErrorConfig), (18 bytes).
    Removing stm32f0xx_usart.o(i.USART_DataInvCmd), (28 bytes).
    Removing stm32f0xx_usart.o(i.USART_DirectionModeCmd), (20 bytes).
    Removing stm32f0xx_usart.o(i.USART_GetFlagStatus), (18 bytes).
    Removing stm32f0xx_usart.o(i.USART_HalfDuplexCmd), (24 bytes).
    Removing stm32f0xx_usart.o(i.USART_InvPinCmd), (20 bytes).
    Removing stm32f0xx_usart.o(i.USART_IrDACmd), (24 bytes).
    Removing stm32f0xx_usart.o(i.USART_IrDAConfig), (16 bytes).
    Removing stm32f0xx_usart.o(i.USART_LINBreakDetectLengthConfig), (16 bytes).
    Removing stm32f0xx_usart.o(i.USART_LINCmd), (28 bytes).
    Removing stm32f0xx_usart.o(i.USART_MSBFirstCmd), (28 bytes).
    Removing stm32f0xx_usart.o(i.USART_MuteModeCmd), (28 bytes).
    Removing stm32f0xx_usart.o(i.USART_MuteModeWakeUpConfig), (18 bytes).
    Removing stm32f0xx_usart.o(i.USART_OneBitMethodCmd), (28 bytes).
    Removing stm32f0xx_usart.o(i.USART_OverSampling8Cmd), (28 bytes).
    Removing stm32f0xx_usart.o(i.USART_OverrunDetectionConfig), (18 bytes).
    Removing stm32f0xx_usart.o(i.USART_ReceiverTimeOutCmd), (28 bytes).
    Removing stm32f0xx_usart.o(i.USART_RequestCmd), (20 bytes).
    Removing stm32f0xx_usart.o(i.USART_STOPModeCmd), (24 bytes).
    Removing stm32f0xx_usart.o(i.USART_SWAPPinCmd), (28 bytes).
    Removing stm32f0xx_usart.o(i.USART_SetAddress), (18 bytes).
    Removing stm32f0xx_usart.o(i.USART_SetAutoRetryCount), (20 bytes).
    Removing stm32f0xx_usart.o(i.USART_SetBlockLength), (18 bytes).
    Removing stm32f0xx_usart.o(i.USART_SetDEAssertionTime), (20 bytes).
    Removing stm32f0xx_usart.o(i.USART_SetDEDeassertionTime), (20 bytes).
    Removing stm32f0xx_usart.o(i.USART_SetGuardTime), (16 bytes).
    Removing stm32f0xx_usart.o(i.USART_SetPrescaler), (18 bytes).
    Removing stm32f0xx_usart.o(i.USART_SetReceiverTimeOut), (16 bytes).
    Removing stm32f0xx_usart.o(i.USART_SmartCardCmd), (24 bytes).
    Removing stm32f0xx_usart.o(i.USART_SmartCardNACKCmd), (24 bytes).
    Removing stm32f0xx_usart.o(i.USART_StopModeWakeUpSourceConfig), (18 bytes).
    Removing stm32f0xx_usart.o(i.USART_StructInit), (24 bytes).
    Removing stm32f0xx_wwdg.o(.emb_text), (8 bytes).
    Removing stm32f0xx_wwdg.o(i.WWDG_ClearFlag), (12 bytes).
    Removing stm32f0xx_wwdg.o(i.WWDG_DeInit), (22 bytes).
    Removing stm32f0xx_wwdg.o(i.WWDG_Enable), (16 bytes).
    Removing stm32f0xx_wwdg.o(i.WWDG_EnableIT), (20 bytes).
    Removing stm32f0xx_wwdg.o(i.WWDG_GetFlagStatus), (24 bytes).
    Removing stm32f0xx_wwdg.o(i.WWDG_SetCounter), (16 bytes).
    Removing stm32f0xx_wwdg.o(i.WWDG_SetPrescaler), (32 bytes).
    Removing stm32f0xx_wwdg.o(i.WWDG_SetWindowValue), (40 bytes).
    Removing dadd.o(.text), (356 bytes).
    Removing dmul.o(.text), (208 bytes).
    Removing ddiv.o(.text), (240 bytes).
    Removing fflti.o(.text), (22 bytes).
    Removing f2d.o(.text), (40 bytes).
    Removing d2f.o(.text), (56 bytes).
    Removing cfcmple.o(.text), (20 bytes).
    Removing depilogue.o(.text), (192 bytes).
    Removing dscalb.o(.text), (44 bytes).
    Removing depilogue.o(i.__ARM_clz), (46 bytes).

526 unused section(s) (total 20978 bytes) removed from the image.

==============================================================================

Image Symbol Table

    Local Symbols

    Symbol Name                              Value     Ov Type        Size  Object(Section)

    ../clib/../cmprslib/zerorunl.c           0x00000000   Number         0  __dczerorl.o ABSOLUTE
    ../clib/microlib/division.c              0x00000000   Number         0  uidiv.o ABSOLUTE
    ../clib/microlib/division.c              0x00000000   Number         0  idiv.o ABSOLUTE
    ../clib/microlib/division.c              0x00000000   Number         0  uldiv.o ABSOLUTE
    ../clib/microlib/errno.c                 0x00000000   Number         0  errno.o ABSOLUTE
    ../clib/microlib/init/entry.s            0x00000000   Number         0  entry10b.o ABSOLUTE
    ../clib/microlib/init/entry.s            0x00000000   Number         0  entry11a.o ABSOLUTE
    ../clib/microlib/init/entry.s            0x00000000   Number         0  entry7a.o ABSOLUTE
    ../clib/microlib/init/entry.s            0x00000000   Number         0  entry10a.o ABSOLUTE
    ../clib/microlib/init/entry.s            0x00000000   Number         0  entry11b.o ABSOLUTE
    ../clib/microlib/init/entry.s            0x00000000   Number         0  entry8b.o ABSOLUTE
    ../clib/microlib/init/entry.s            0x00000000   Number         0  entry8a.o ABSOLUTE
    ../clib/microlib/init/entry.s            0x00000000   Number         0  entry5.o ABSOLUTE
    ../clib/microlib/init/entry.s            0x00000000   Number         0  entry2.o ABSOLUTE
    ../clib/microlib/init/entry.s            0x00000000   Number         0  entry9a.o ABSOLUTE
    ../clib/microlib/init/entry.s            0x00000000   Number         0  entry7b.o ABSOLUTE
    ../clib/microlib/init/entry.s            0x00000000   Number         0  entry9b.o ABSOLUTE
    ../clib/microlib/init/entry.s            0x00000000   Number         0  entry.o ABSOLUTE
    ../clib/microlib/longlong.c              0x00000000   Number         0  llsshr.o ABSOLUTE
    ../clib/microlib/longlong.c              0x00000000   Number         0  llushr.o ABSOLUTE
    ../clib/microlib/longlong.c              0x00000000   Number         0  llshl.o ABSOLUTE
    ../clib/microlib/string/memcpy.c         0x00000000   Number         0  memcpyb.o ABSOLUTE
    ../clib/microlib/string/memcpy.c         0x00000000   Number         0  memcpya.o ABSOLUTE
    ../clib/microlib/string/memset.c         0x00000000   Number         0  memseta.o ABSOLUTE
    ../clib/microlib/string/strcat.c         0x00000000   Number         0  strcat.o ABSOLUTE
    ../clib/microlib/string/strcpy.c         0x00000000   Number         0  strcpy.o ABSOLUTE
    ../clib/microlib/string/strlen.c         0x00000000   Number         0  strlen.o ABSOLUTE
    ../clib/microlib/string/strncat.c        0x00000000   Number         0  strncat.o ABSOLUTE
    ../clib/microlib/string/strncmp.c        0x00000000   Number         0  strncmp.o ABSOLUTE
    ../clib/microlib/string/strncpy.c        0x00000000   Number         0  strncpy.o ABSOLUTE
    ../clib/microlib/string/strstr.c         0x00000000   Number         0  strstr.o ABSOLUTE
    ../clib/microlib/stubs.s                 0x00000000   Number         0  iusefp.o ABSOLUTE
    ../clib/microlib/unhosted.c              0x00000000   Number         0  uread4.o ABSOLUTE
    ../clib/microlib/unhosted.c              0x00000000   Number         0  uwrite4.o ABSOLUTE
    ../fplib/microlib/d2f.c                  0x00000000   Number         0  d2f.o ABSOLUTE
    ../fplib/microlib/f2d.c                  0x00000000   Number         0  f2d.o ABSOLUTE
    ../fplib/microlib/fpadd.c                0x00000000   Number         0  dadd.o ABSOLUTE
    ../fplib/microlib/fpdiv.c                0x00000000   Number         0  ddiv.o ABSOLUTE
    ../fplib/microlib/fpdiv.c                0x00000000   Number         0  fdiv.o ABSOLUTE
    ../fplib/microlib/fpepilogue.c           0x00000000   Number         0  depilogue.o ABSOLUTE
    ../fplib/microlib/fpepilogue.c           0x00000000   Number         0  fepilogue.o ABSOLUTE
    ../fplib/microlib/fpfix.c                0x00000000   Number         0  ffixui.o ABSOLUTE
    ../fplib/microlib/fpflt.c                0x00000000   Number         0  ffltui.o ABSOLUTE
    ../fplib/microlib/fpflt.c                0x00000000   Number         0  fflti.o ABSOLUTE
    ../fplib/microlib/fpmul.c                0x00000000   Number         0  fmul.o ABSOLUTE
    ../fplib/microlib/fpmul.c                0x00000000   Number         0  dmul.o ABSOLUTE
    ../fplib/microlib/fpscalb.c              0x00000000   Number         0  dscalb.o ABSOLUTE
    ../mathlib/atan.c                        0x00000000   Number         0  atan_x.o ABSOLUTE
    ../mathlib/atan.c                        0x00000000   Number         0  atan.o ABSOLUTE
    ../mathlib/atan2.c                       0x00000000   Number         0  atan2_x.o ABSOLUTE
    ../mathlib/atan2.c                       0x00000000   Number         0  atan2.o ABSOLUTE
    ../mathlib/dunder.c                      0x00000000   Number         0  dunder.o ABSOLUTE
    ../mathlib/fpclassify.c                  0x00000000   Number         0  fpclassify.o ABSOLUTE
    ../mathlib/poly.c                        0x00000000   Number         0  poly.o ABSOLUTE
    ../mathlib/qnan.c                        0x00000000   Number         0  qnan.o ABSOLUTE
    Library\CMSIS\ST\STM32F0xx\Source\Templates\arm\startup_stm32f0xx.s 0x00000000   Number         0  startup_stm32f0xx.o ABSOLUTE
    Library\STM32F0xx_StdPeriph_Driver\src\stm32f0xx_adc.c 0x00000000   Number         0  stm32f0xx_adc.o ABSOLUTE
    Library\STM32F0xx_StdPeriph_Driver\src\stm32f0xx_cec.c 0x00000000   Number         0  stm32f0xx_cec.o ABSOLUTE
    Library\STM32F0xx_StdPeriph_Driver\src\stm32f0xx_comp.c 0x00000000   Number         0  stm32f0xx_comp.o ABSOLUTE
    Library\STM32F0xx_StdPeriph_Driver\src\stm32f0xx_crc.c 0x00000000   Number         0  stm32f0xx_crc.o ABSOLUTE
    Library\STM32F0xx_StdPeriph_Driver\src\stm32f0xx_dac.c 0x00000000   Number         0  stm32f0xx_dac.o ABSOLUTE
    Library\STM32F0xx_StdPeriph_Driver\src\stm32f0xx_dbgmcu.c 0x00000000   Number         0  stm32f0xx_dbgmcu.o ABSOLUTE
    Library\STM32F0xx_StdPeriph_Driver\src\stm32f0xx_dma.c 0x00000000   Number         0  stm32f0xx_dma.o ABSOLUTE
    Library\STM32F0xx_StdPeriph_Driver\src\stm32f0xx_exti.c 0x00000000   Number         0  stm32f0xx_exti.o ABSOLUTE
    Library\STM32F0xx_StdPeriph_Driver\src\stm32f0xx_flash.c 0x00000000   Number         0  stm32f0xx_flash.o ABSOLUTE
    Library\STM32F0xx_StdPeriph_Driver\src\stm32f0xx_gpio.c 0x00000000   Number         0  stm32f0xx_gpio.o ABSOLUTE
    Library\STM32F0xx_StdPeriph_Driver\src\stm32f0xx_i2c.c 0x00000000   Number         0  stm32f0xx_i2c.o ABSOLUTE
    Library\STM32F0xx_StdPeriph_Driver\src\stm32f0xx_iwdg.c 0x00000000   Number         0  stm32f0xx_iwdg.o ABSOLUTE
    Library\STM32F0xx_StdPeriph_Driver\src\stm32f0xx_misc.c 0x00000000   Number         0  stm32f0xx_misc.o ABSOLUTE
    Library\STM32F0xx_StdPeriph_Driver\src\stm32f0xx_pwr.c 0x00000000   Number         0  stm32f0xx_pwr.o ABSOLUTE
    Library\STM32F0xx_StdPeriph_Driver\src\stm32f0xx_rcc.c 0x00000000   Number         0  stm32f0xx_rcc.o ABSOLUTE
    Library\STM32F0xx_StdPeriph_Driver\src\stm32f0xx_rtc.c 0x00000000   Number         0  stm32f0xx_rtc.o ABSOLUTE
    Library\STM32F0xx_StdPeriph_Driver\src\stm32f0xx_spi.c 0x00000000   Number         0  stm32f0xx_spi.o ABSOLUTE
    Library\STM32F0xx_StdPeriph_Driver\src\stm32f0xx_syscfg.c 0x00000000   Number         0  stm32f0xx_syscfg.o ABSOLUTE
    Library\STM32F0xx_StdPeriph_Driver\src\stm32f0xx_tim.c 0x00000000   Number         0  stm32f0xx_tim.o ABSOLUTE
    Library\STM32F0xx_StdPeriph_Driver\src\stm32f0xx_usart.c 0x00000000   Number         0  stm32f0xx_usart.o ABSOLUTE
    Library\STM32F0xx_StdPeriph_Driver\src\stm32f0xx_wwdg.c 0x00000000   Number         0  stm32f0xx_wwdg.o ABSOLUTE
    Library\\STM32F0xx_StdPeriph_Driver\\src\\stm32f0xx_adc.c 0x00000000   Number         0  stm32f0xx_adc.o ABSOLUTE
    Library\\STM32F0xx_StdPeriph_Driver\\src\\stm32f0xx_cec.c 0x00000000   Number         0  stm32f0xx_cec.o ABSOLUTE
    Library\\STM32F0xx_StdPeriph_Driver\\src\\stm32f0xx_comp.c 0x00000000   Number         0  stm32f0xx_comp.o ABSOLUTE
    Library\\STM32F0xx_StdPeriph_Driver\\src\\stm32f0xx_crc.c 0x00000000   Number         0  stm32f0xx_crc.o ABSOLUTE
    Library\\STM32F0xx_StdPeriph_Driver\\src\\stm32f0xx_dac.c 0x00000000   Number         0  stm32f0xx_dac.o ABSOLUTE
    Library\\STM32F0xx_StdPeriph_Driver\\src\\stm32f0xx_dbgmcu.c 0x00000000   Number         0  stm32f0xx_dbgmcu.o ABSOLUTE
    Library\\STM32F0xx_StdPeriph_Driver\\src\\stm32f0xx_dma.c 0x00000000   Number         0  stm32f0xx_dma.o ABSOLUTE
    Library\\STM32F0xx_StdPeriph_Driver\\src\\stm32f0xx_exti.c 0x00000000   Number         0  stm32f0xx_exti.o ABSOLUTE
    Library\\STM32F0xx_StdPeriph_Driver\\src\\stm32f0xx_flash.c 0x00000000   Number         0  stm32f0xx_flash.o ABSOLUTE
    Library\\STM32F0xx_StdPeriph_Driver\\src\\stm32f0xx_gpio.c 0x00000000   Number         0  stm32f0xx_gpio.o ABSOLUTE
    Library\\STM32F0xx_StdPeriph_Driver\\src\\stm32f0xx_i2c.c 0x00000000   Number         0  stm32f0xx_i2c.o ABSOLUTE
    Library\\STM32F0xx_StdPeriph_Driver\\src\\stm32f0xx_iwdg.c 0x00000000   Number         0  stm32f0xx_iwdg.o ABSOLUTE
    Library\\STM32F0xx_StdPeriph_Driver\\src\\stm32f0xx_misc.c 0x00000000   Number         0  stm32f0xx_misc.o ABSOLUTE
    Library\\STM32F0xx_StdPeriph_Driver\\src\\stm32f0xx_pwr.c 0x00000000   Number         0  stm32f0xx_pwr.o ABSOLUTE
    Library\\STM32F0xx_StdPeriph_Driver\\src\\stm32f0xx_rcc.c 0x00000000   Number         0  stm32f0xx_rcc.o ABSOLUTE
    Library\\STM32F0xx_StdPeriph_Driver\\src\\stm32f0xx_rtc.c 0x00000000   Number         0  stm32f0xx_rtc.o ABSOLUTE
    Library\\STM32F0xx_StdPeriph_Driver\\src\\stm32f0xx_spi.c 0x00000000   Number         0  stm32f0xx_spi.o ABSOLUTE
    Library\\STM32F0xx_StdPeriph_Driver\\src\\stm32f0xx_syscfg.c 0x00000000   Number         0  stm32f0xx_syscfg.o ABSOLUTE
    Library\\STM32F0xx_StdPeriph_Driver\\src\\stm32f0xx_tim.c 0x00000000   Number         0  stm32f0xx_tim.o ABSOLUTE
    Library\\STM32F0xx_StdPeriph_Driver\\src\\stm32f0xx_usart.c 0x00000000   Number         0  stm32f0xx_usart.o ABSOLUTE
    Library\\STM32F0xx_StdPeriph_Driver\\src\\stm32f0xx_wwdg.c 0x00000000   Number         0  stm32f0xx_wwdg.o ABSOLUTE
    Library\\stm32f0_discovery.c             0x00000000   Number         0  stm32f0_discovery.o ABSOLUTE
    Library\stm32f0_discovery.c              0x00000000   Number         0  stm32f0_discovery.o ABSOLUTE
    cfcmple.s                                0x00000000   Number         0  cfcmple.o ABSOLUTE
    dc.s                                     0x00000000   Number         0  dc.o ABSOLUTE
    handlers.s                               0x00000000   Number         0  handlers.o ABSOLUTE
    init.s                                   0x00000000   Number         0  init.o ABSOLUTE
    user\ADC\adc.c                           0x00000000   Number         0  adc.o ABSOLUTE
    user\FLASH\ddi_Norflash.c                0x00000000   Number         0  ddi_norflash.o ABSOLUTE
    user\LED.c                               0x00000000   Number         0  led.o ABSOLUTE
    user\SmsCmd.c                            0x00000000   Number         0  smscmd.o ABSOLUTE
    user\WDG\wdg.c                           0x00000000   Number         0  wdg.o ABSOLUTE
    user\\ADC\\adc.c                         0x00000000   Number         0  adc.o ABSOLUTE
    user\\FLASH\\ddi_Norflash.c              0x00000000   Number         0  ddi_norflash.o ABSOLUTE
    user\\LED.c                              0x00000000   Number         0  led.o ABSOLUTE
    user\\SmsCmd.c                           0x00000000   Number         0  smscmd.o ABSOLUTE
    user\\WDG\\wdg.c                         0x00000000   Number         0  wdg.o ABSOLUTE
    user\\gprs.c                             0x00000000   Number         0  gprs.o ABSOLUTE
    user\\gps.c                              0x00000000   Number         0  gps.o ABSOLUTE
    user\\gsm.c                              0x00000000   Number         0  gsm.o ABSOLUTE
    user\\lIS3DH\\i2c_lsm330.c               0x00000000   Number         0  i2c_lsm330.o ABSOLUTE
    user\\lIS3DH\\lsm330dlc_driver.c         0x00000000   Number         0  lsm330dlc_driver.o ABSOLUTE
    user\\main.c                             0x00000000   Number         0  main.o ABSOLUTE
    user\\set_system_use_uart.c              0x00000000   Number         0  set_system_use_uart.o ABSOLUTE
    user\\stm32f0xx_it.c                     0x00000000   Number         0  stm32f0xx_it.o ABSOLUTE
    user\\system_stm32f0xx.c                 0x00000000   Number         0  system_stm32f0xx.o ABSOLUTE
    user\\usart1\\usart1.c                   0x00000000   Number         0  usart1.o ABSOLUTE
    user\gprs.c                              0x00000000   Number         0  gprs.o ABSOLUTE
    user\gps.c                               0x00000000   Number         0  gps.o ABSOLUTE
    user\gsm.c                               0x00000000   Number         0  gsm.o ABSOLUTE
    user\lIS3DH\i2c_lsm330.c                 0x00000000   Number         0  i2c_lsm330.o ABSOLUTE
    user\lIS3DH\lsm330dlc_driver.c           0x00000000   Number         0  lsm330dlc_driver.o ABSOLUTE
    user\main.c                              0x00000000   Number         0  main.o ABSOLUTE
    user\set_system_use_uart.c               0x00000000   Number         0  set_system_use_uart.o ABSOLUTE
    user\stm32f0xx_it.c                      0x00000000   Number         0  stm32f0xx_it.o ABSOLUTE
    user\system_stm32f0xx.c                  0x00000000   Number         0  system_stm32f0xx.o ABSOLUTE
    user\usart1\usart1.c                     0x00000000   Number         0  usart1.o ABSOLUTE
    RESET                                    0x08000000   Section      192  startup_stm32f0xx.o(RESET)
    .ARM.Collect$$$$00000000                 0x080000c0   Section        0  entry.o(.ARM.Collect$$$$00000000)
    .ARM.Collect$$$$00000001                 0x080000c0   Section        4  entry2.o(.ARM.Collect$$$$00000001)
    .ARM.Collect$$$$00000004                 0x080000c4   Section        4  entry5.o(.ARM.Collect$$$$00000004)
    .ARM.Collect$$$$00000008                 0x080000c8   Section        0  entry7b.o(.ARM.Collect$$$$00000008)
    .ARM.Collect$$$$0000000A                 0x080000c8   Section        0  entry8b.o(.ARM.Collect$$$$0000000A)
    .ARM.Collect$$$$0000000B                 0x080000c8   Section        8  entry9a.o(.ARM.Collect$$$$0000000B)
    .ARM.Collect$$$$0000000D                 0x080000d0   Section        0  entry10a.o(.ARM.Collect$$$$0000000D)
    .ARM.Collect$$$$0000000F                 0x080000d0   Section        0  entry11a.o(.ARM.Collect$$$$0000000F)
    .ARM.Collect$$$$00002712                 0x080000d0   Section        4  entry2.o(.ARM.Collect$$$$00002712)
    __lit__00000000                          0x080000d0   Data           4  entry2.o(.ARM.Collect$$$$00002712)
    .text                                    0x080000d4   Section       28  startup_stm32f0xx.o(.text)
    .text                                    0x080000f0   Section        0  uidiv.o(.text)
    .text                                    0x0800011c   Section        0  idiv.o(.text)
    .text                                    0x08000144   Section        0  uldiv.o(.text)
    .text                                    0x080001a4   Section        0  memcpya.o(.text)
    .text                                    0x080001c8   Section        0  memseta.o(.text)
    .text                                    0x080001ec   Section        0  strcat.o(.text)
    .text                                    0x08000204   Section        0  strstr.o(.text)
    .text                                    0x0800022c   Section        0  strncpy.o(.text)
    .text                                    0x08000246   Section        0  strlen.o(.text)
    .text                                    0x08000254   Section        0  strncat.o(.text)
    .text                                    0x0800027c   Section        0  strcpy.o(.text)
    .text                                    0x0800028e   Section        0  strncmp.o(.text)
    .text                                    0x080002ac   Section        0  uread4.o(.text)
    .text                                    0x080002c0   Section        0  uwrite4.o(.text)
    .text                                    0x080002d2   Section        0  fmul.o(.text)
    .text                                    0x0800034c   Section        0  fdiv.o(.text)
    .text                                    0x080003c8   Section        0  ffltui.o(.text)
    .text                                    0x080003d6   Section        0  ffixui.o(.text)
    .text                                    0x080003fe   Section        0  llshl.o(.text)
    .text                                    0x0800041e   Section        0  llushr.o(.text)
    .text                                    0x08000440   Section        0  iusefp.o(.text)
    .text                                    0x08000440   Section        0  fepilogue.o(.text)
    .text                                    0x080004c4   Section       36  init.o(.text)
    .text                                    0x080004e8   Section        0  __dczerorl.o(.text)
    i.ADC1_Config                            0x08000524   Section        0  adc.o(i.ADC1_Config)
    i.ADC_AutoPowerOffCmd                    0x080005c0   Section        0  stm32f0xx_adc.o(i.ADC_AutoPowerOffCmd)
    i.ADC_ChannelConfig                      0x080005dc   Section        0  stm32f0xx_adc.o(i.ADC_ChannelConfig)
    i.ADC_Cmd                                0x080005f4   Section        0  stm32f0xx_adc.o(i.ADC_Cmd)
    i.ADC_DeInit                             0x0800060c   Section        0  stm32f0xx_adc.o(i.ADC_DeInit)
    i.ADC_GetCalibrationFactor               0x0800062c   Section        0  stm32f0xx_adc.o(i.ADC_GetCalibrationFactor)
    i.ADC_GetConversionValue                 0x08000666   Section        0  stm32f0xx_adc.o(i.ADC_GetConversionValue)
    i.ADC_GetFlagStatus                      0x0800066e   Section        0  stm32f0xx_adc.o(i.ADC_GetFlagStatus)
    i.ADC_Init                               0x0800069c   Section        0  stm32f0xx_adc.o(i.ADC_Init)
    i.ADC_StartOfConversion                  0x080006c8   Section        0  stm32f0xx_adc.o(i.ADC_StartOfConversion)
    i.ADC_StopOfConversion                   0x080006d2   Section        0  stm32f0xx_adc.o(i.ADC_StopOfConversion)
    i.ADC_WaitModeCmd                        0x080006dc   Section        0  stm32f0xx_adc.o(i.ADC_WaitModeCmd)
    i.Backup_Store_System_Para               0x080006f8   Section        0  main.o(i.Backup_Store_System_Para)
    i.BatteryStatusGet                       0x08000780   Section        0  gsm.o(i.BatteryStatusGet)
    i.CheckSum                               0x080007fc   Section        0  gps.o(i.CheckSum)
    i.Check_AT                               0x0800085c   Section        0  led.o(i.Check_AT)
    i.Clear_All_GSM_flag                     0x080008b4   Section        0  led.o(i.Clear_All_GSM_flag)
    i.ClrGSMBuff                             0x080008d0   Section        0  gsm.o(i.ClrGSMBuff)
    i.Cmd_ACC                                0x080008ec   Section        0  smscmd.o(i.Cmd_ACC)
    i.Cmd_CXCS                               0x080009f4   Section        0  smscmd.o(i.Cmd_CXCS)
    i.Cmd_CXZD                               0x08000ac8   Section        0  smscmd.o(i.Cmd_CXZD)
    i.Cmd_CellID                             0x08000d7c   Section        0  smscmd.o(i.Cmd_CellID)
    i.Cmd_DeviceInfo                         0x08000e94   Section        0  smscmd.o(i.Cmd_DeviceInfo)
    i.Cmd_Duration                           0x080011ac   Section        0  smscmd.o(i.Cmd_Duration)
    i.Cmd_ENAUTOSMS                          0x08001404   Section        0  smscmd.o(i.Cmd_ENAUTOSMS)
    i.Cmd_IMEI                               0x08001514   Section        0  smscmd.o(i.Cmd_IMEI)
    i.Cmd_Initial                            0x080015fc   Section        0  smscmd.o(i.Cmd_Initial)
    i.Cmd_NewNum                             0x08001670   Section        0  smscmd.o(i.Cmd_NewNum)
    i.Cmd_Position                           0x08001810   Section        0  smscmd.o(i.Cmd_Position)
    i.Cmd_SETM                               0x08001874   Section        0  smscmd.o(i.Cmd_SETM)
    i.Cmd_SetMode                            0x08001e58   Section        0  smscmd.o(i.Cmd_SetMode)
    i.Cmd_SetNET                             0x08002020   Section        0  smscmd.o(i.Cmd_SetNET)
    i.Cmd_SetPsw                             0x08002488   Section        0  smscmd.o(i.Cmd_SetPsw)
    i.Cmd_SetWakeTime                        0x08002598   Section        0  smscmd.o(i.Cmd_SetWakeTime)
    i.Cmd_Setmid                             0x08002784   Section        0  smscmd.o(i.Cmd_Setmid)
    i.Cmd_ShowRegNum                         0x080028e4   Section        0  smscmd.o(i.Cmd_ShowRegNum)
    i.Cmd_SleepTime                          0x08002a04   Section        0  smscmd.o(i.Cmd_SleepTime)
    i.Cmd_SpeedLimit                         0x08002c14   Section        0  smscmd.o(i.Cmd_SpeedLimit)
    i.Cmd_relay                              0x08002e74   Section        0  smscmd.o(i.Cmd_relay)
    i.Cmd_shocks                             0x08002f78   Section        0  smscmd.o(i.Cmd_shocks)
    i.Configuration_TEXT_SMS                 0x080030c0   Section        0  gsm.o(i.Configuration_TEXT_SMS)
    i.Deal_GSMRTC                            0x08003224   Section        0  gsm.o(i.Deal_GSMRTC)
    i.Deal_GSM_LAC                           0x080032f8   Section        0  gprs.o(i.Deal_GSM_LAC)
    i.Deal_SMS                               0x0800335c   Section        0  main.o(i.Deal_SMS)
    i.EXTI0_1_IRQHandler                     0x080035a8   Section        0  stm32f0xx_it.o(i.EXTI0_1_IRQHandler)
    i.EXTI4_15_IRQHandler                    0x080035bc   Section        0  stm32f0xx_it.o(i.EXTI4_15_IRQHandler)
    i.EXTI_ClearITPendingBit                 0x080036d0   Section        0  stm32f0xx_exti.o(i.EXTI_ClearITPendingBit)
    i.EXTI_GetITStatus                       0x080036dc   Section        0  stm32f0xx_exti.o(i.EXTI_GetITStatus)
    i.EXTI_Init                              0x08003704   Section        0  stm32f0xx_exti.o(i.EXTI_Init)
    i.FLASH_ClearFlag                        0x0800378c   Section        0  stm32f0xx_flash.o(i.FLASH_ClearFlag)
    i.FLASH_ErasePage                        0x08003798   Section        0  stm32f0xx_flash.o(i.FLASH_ErasePage)
    i.FLASH_ErasePage_Complete               0x080037e4   Section        0  main.o(i.FLASH_ErasePage_Complete)
    i.FLASH_GetStatus                        0x08003808   Section        0  stm32f0xx_flash.o(i.FLASH_GetStatus)
    i.FLASH_Lock                             0x0800383c   Section        0  stm32f0xx_flash.o(i.FLASH_Lock)
    i.FLASH_ProgramWord                      0x08003850   Section        0  stm32f0xx_flash.o(i.FLASH_ProgramWord)
    i.FLASH_Unlock                           0x080038bc   Section        0  stm32f0xx_flash.o(i.FLASH_Unlock)
    i.FLASH_WaitForLastOperation             0x080038e0   Section        0  stm32f0xx_flash.o(i.FLASH_WaitForLastOperation)
    i.GC65_CGATT                             0x08003908   Section        0  gsm.o(i.GC65_CGATT)
    i.GC65_CPIN                              0x08003980   Section        0  gsm.o(i.GC65_CPIN)
    i.GPIO_Init                              0x080039f0   Section        0  stm32f0xx_gpio.o(i.GPIO_Init)
    i.GPIO_PinAFConfig                       0x08003a80   Section        0  stm32f0xx_gpio.o(i.GPIO_PinAFConfig)
    i.GPIO_ReadInputDataBit                  0x08003ac4   Section        0  stm32f0xx_gpio.o(i.GPIO_ReadInputDataBit)
    i.GPIO_ResetBits                         0x08003ad6   Section        0  stm32f0xx_gpio.o(i.GPIO_ResetBits)
    i.GPIO_SetBits                           0x08003ada   Section        0  stm32f0xx_gpio.o(i.GPIO_SetBits)
    i.GPS_Deal                               0x08003ae0   Section        0  gprs.o(i.GPS_Deal)
    i.GSM_Power                              0x08003c78   Section        0  led.o(i.GSM_Power)
    i.GSM_QICLOSED                           0x08003e1c   Section        0  gsm.o(i.GSM_QICLOSED)
    i.GSM_reset                              0x08003e90   Section        0  led.o(i.GSM_reset)
    i.GetAvailableGPSInfoV                   0x08003ebc   Section        0  gps.o(i.GetAvailableGPSInfoV)
    i.GetAvailableGPSInfoV_N                 0x080040c8   Section        0  gsm.o(i.GetAvailableGPSInfoV_N)
    i.GetGPRSStatus                          0x080040fc   Section        0  gsm.o(i.GetGPRSStatus)
    i.GetVoltage                             0x08004204   Section        0  adc.o(i.GetVoltage)
    i.Get_Adc                                0x08004294   Section        0  adc.o(i.Get_Adc)
    i.Get_GPS_module                         0x080042f8   Section        0  usart1.o(i.Get_GPS_module)
    i.HardFault_Handler                      0x08004384   Section        0  stm32f0xx_it.o(i.HardFault_Handler)
    i.IIC_lsm330_Ack                         0x080043bc   Section        0  i2c_lsm330.o(i.IIC_lsm330_Ack)
    i.IIC_lsm330_NAck                        0x080043f4   Section        0  i2c_lsm330.o(i.IIC_lsm330_NAck)
    i.IIC_lsm330_Read_Byte                   0x0800442c   Section        0  i2c_lsm330.o(i.IIC_lsm330_Read_Byte)
    i.IIC_lsm330_Send_Byte                   0x08004488   Section        0  i2c_lsm330.o(i.IIC_lsm330_Send_Byte)
    i.IIC_lsm330_Start                       0x080044f4   Section        0  i2c_lsm330.o(i.IIC_lsm330_Start)
    i.IIC_lsm330_Stop                        0x0800452c   Section        0  i2c_lsm330.o(i.IIC_lsm330_Stop)
    i.IIC_lsm330_Wait_Ack                    0x08004564   Section        0  i2c_lsm330.o(i.IIC_lsm330_Wait_Ack)
    i.IO_Init                                0x080045b8   Section        0  led.o(i.IO_Init)
    i.IWDG_Enable                            0x080046c8   Section        0  stm32f0xx_iwdg.o(i.IWDG_Enable)
    i.IWDG_Feed                              0x080046d8   Section        0  wdg.o(i.IWDG_Feed)
    i.IWDG_Init                              0x080046e0   Section        0  wdg.o(i.IWDG_Init)
    i.IWDG_ReloadCounter                     0x08004708   Section        0  stm32f0xx_iwdg.o(i.IWDG_ReloadCounter)
    i.IWDG_SetPrescaler                      0x08004718   Section        0  stm32f0xx_iwdg.o(i.IWDG_SetPrescaler)
    i.IWDG_SetReload                         0x08004724   Section        0  stm32f0xx_iwdg.o(i.IWDG_SetReload)
    i.IWDG_WriteAccessCmd                    0x08004730   Section        0  stm32f0xx_iwdg.o(i.IWDG_WriteAccessCmd)
    i.InitialSetting                         0x0800473c   Section        0  set_system_use_uart.o(i.InitialSetting)
    i.Is_Leap_Year                           0x0800592c   Section        0  gprs.o(i.Is_Leap_Year)
    i.LMS330DLC_AccGetDataRate               0x08005968   Section        0  lsm330dlc_driver.o(i.LMS330DLC_AccGetDataRate)
    i.LMS330DLC_AccSetIrqDuration            0x080059c4   Section        0  lsm330dlc_driver.o(i.LMS330DLC_AccSetIrqDuration)
    i.LMS330DLC_AccSetThreshold              0x08005a00   Section        0  lsm330dlc_driver.o(i.LMS330DLC_AccSetThreshold)
    i.LMS330DLC_ReadReg                      0x08005a18   Section        0  lsm330dlc_driver.o(i.LMS330DLC_ReadReg)
    i.LMS330DLC_SetInt1Duration              0x08005a58   Section        0  lsm330dlc_driver.o(i.LMS330DLC_SetInt1Duration)
    i.LMS330DLC_SetInt1Threshold             0x08005a76   Section        0  lsm330dlc_driver.o(i.LMS330DLC_SetInt1Threshold)
    i.LMS330DLC_WriteReg                     0x08005a94   Section        0  lsm330dlc_driver.o(i.LMS330DLC_WriteReg)
    i.NMI_Handler                            0x08005ac4   Section        0  stm32f0xx_it.o(i.NMI_Handler)
    i.NVIC_Init                              0x08005ac8   Section        0  stm32f0xx_misc.o(i.NVIC_Init)
    i.NVIC_SetPriority                       0x08005b38   Section        0  main.o(i.NVIC_SetPriority)
    NVIC_SetPriority                         0x08005b39   Thumb Code   110  main.o(i.NVIC_SetPriority)
    i.PWR_BackupAccessCmd                    0x08005bb0   Section        0  stm32f0xx_pwr.o(i.PWR_BackupAccessCmd)
    i.PWR_EnterSTOPMode                      0x08005bd8   Section        0  stm32f0xx_pwr.o(i.PWR_EnterSTOPMode)
    i.PendSV_Handler                         0x08005c1c   Section        0  stm32f0xx_it.o(i.PendSV_Handler)
    i.PrintATF                               0x08005c20   Section        0  set_system_use_uart.o(i.PrintATF)
    i.RCC_AHBPeriphClockCmd                  0x08005cb0   Section        0  stm32f0xx_rcc.o(i.RCC_AHBPeriphClockCmd)
    i.RCC_APB1PeriphClockCmd                 0x08005cd0   Section        0  stm32f0xx_rcc.o(i.RCC_APB1PeriphClockCmd)
    i.RCC_APB1PeriphResetCmd                 0x08005cf0   Section        0  stm32f0xx_rcc.o(i.RCC_APB1PeriphResetCmd)
    i.RCC_APB2PeriphClockCmd                 0x08005d10   Section        0  stm32f0xx_rcc.o(i.RCC_APB2PeriphClockCmd)
    i.RCC_APB2PeriphResetCmd                 0x08005d30   Section        0  stm32f0xx_rcc.o(i.RCC_APB2PeriphResetCmd)
    i.RCC_BackupResetCmd                     0x08005d50   Section        0  stm32f0xx_rcc.o(i.RCC_BackupResetCmd)
    i.RCC_GetClocksFreq                      0x08005d78   Section        0  stm32f0xx_rcc.o(i.RCC_GetClocksFreq)
    i.RCC_GetFlagStatus                      0x08005ee4   Section        0  stm32f0xx_rcc.o(i.RCC_GetFlagStatus)
    i.RCC_LSICmd                             0x08005f2c   Section        0  stm32f0xx_rcc.o(i.RCC_LSICmd)
    i.RCC_RTCCLKCmd                          0x08005f50   Section        0  stm32f0xx_rcc.o(i.RCC_RTCCLKCmd)
    i.RCC_RTCCLKConfig                       0x08005f78   Section        0  stm32f0xx_rcc.o(i.RCC_RTCCLKConfig)
    i.RING_EXTI0_Config                      0x08005f88   Section        0  led.o(i.RING_EXTI0_Config)
    i.RTC2Position_time                      0x08005ff0   Section        0  gprs.o(i.RTC2Position_time)
    i.RTC_AlarmCmd                           0x08006040   Section        0  stm32f0xx_rtc.o(i.RTC_AlarmCmd)
    i.RTC_Bcd2ToByte                         0x080060ac   Section        0  stm32f0xx_rtc.o(i.RTC_Bcd2ToByte)
    i.RTC_ByteToBcd2                         0x080060c6   Section        0  stm32f0xx_rtc.o(i.RTC_ByteToBcd2)
    i.RTC_ClearITPendingBit                  0x080060e4   Section        0  stm32f0xx_rtc.o(i.RTC_ClearITPendingBit)
    i.RTC_Config                             0x08006108   Section        0  main.o(i.RTC_Config)
    i.RTC_EnterInitMode                      0x080061fc   Section        0  stm32f0xx_rtc.o(i.RTC_EnterInitMode)
    i.RTC_ExitInitMode                       0x08006250   Section        0  stm32f0xx_rtc.o(i.RTC_ExitInitMode)
    i.RTC_Get                                0x08006264   Section        0  gprs.o(i.RTC_Get)
    i.RTC_GetITStatus                        0x080063bc   Section        0  stm32f0xx_rtc.o(i.RTC_GetITStatus)
    i.RTC_IRQHandler                         0x08006408   Section        0  stm32f0xx_it.o(i.RTC_IRQHandler)
    i.RTC_ITConfig                           0x08006438   Section        0  stm32f0xx_rtc.o(i.RTC_ITConfig)
    i.RTC_Init                               0x0800649c   Section        0  stm32f0xx_rtc.o(i.RTC_Init)
    i.RTC_Set                                0x080064f4   Section        0  gprs.o(i.RTC_Set)
    i.RTC_SetAlarm                           0x080065b4   Section        0  stm32f0xx_rtc.o(i.RTC_SetAlarm)
    i.RTC_SetTime                            0x08006688   Section        0  stm32f0xx_rtc.o(i.RTC_SetTime)
    i.RTC_WaitForSynchro                     0x08006754   Section        0  stm32f0xx_rtc.o(i.RTC_WaitForSynchro)
    i.RestoreSystem                          0x080067bc   Section        0  main.o(i.RestoreSystem)
    i.SET_APN                                0x080068c8   Section        0  gsm.o(i.SET_APN)
    i.SVC_Handler                            0x08006970   Section        0  stm32f0xx_it.o(i.SVC_Handler)
    i.SYSCFG_EXTILineConfig                  0x08006974   Section        0  stm32f0xx_syscfg.o(i.SYSCFG_EXTILineConfig)
    i.SYSCLKConfig_STOP                      0x080069b4   Section        0  main.o(i.SYSCLKConfig_STOP)
    i.SendALARMSMS1                          0x08006a30   Section        0  gsm.o(i.SendALARMSMS1)
    i.SendGprs_Index                         0x08006a48   Section        0  gprs.o(i.SendGprs_Index)
    i.SendLocaSMS                            0x08006c00   Section        0  gsm.o(i.SendLocaSMS)
    i.SendLocaSMS1                           0x08006e44   Section        0  gsm.o(i.SendLocaSMS1)
    i.SendMsg                                0x08006e58   Section        0  gsm.o(i.SendMsg)
    i.SendMsg_Parameter_error                0x08006f38   Section        0  gsm.o(i.SendMsg_Parameter_error)
    i.SendMsg_Password_error                 0x08006f60   Section        0  gsm.o(i.SendMsg_Password_error)
    i.SendMsg_UCS2                           0x08006f84   Section        0  gsm.o(i.SendMsg_UCS2)
    i.Send_lowpower_LocaSMS                  0x08007098   Section        0  gsm.o(i.Send_lowpower_LocaSMS)
    i.Send_speed_ALARMSMS                    0x080070b4   Section        0  gsm.o(i.Send_speed_ALARMSMS)
    i.SetGPRS                                0x08007124   Section        0  gprs.o(i.SetGPRS)
    i.SetSysClock                            0x08007218   Section        0  system_stm32f0xx.o(i.SetSysClock)
    SetSysClock                              0x08007219   Thumb Code   124  system_stm32f0xx.o(i.SetSysClock)
    i.Set_Store_System_Para                  0x0800729c   Section        0  main.o(i.Set_Store_System_Para)
    i.StartGPRS                              0x08007320   Section        0  gsm.o(i.StartGPRS)
    i.StartGPRStoAGPS                        0x08007720   Section        0  gsm.o(i.StartGPRStoAGPS)
    i.Store_System_Para                      0x08007948   Section        0  main.o(i.Store_System_Para)
    i.SysTick_Config                         0x080079a0   Section        0  main.o(i.SysTick_Config)
    SysTick_Config                           0x080079a1   Thumb Code    50  main.o(i.SysTick_Config)
    i.SysTick_Handler                        0x080079e0   Section        0  stm32f0xx_it.o(i.SysTick_Handler)
    i.SystemInit                             0x08007c20   Section        0  system_stm32f0xx.o(i.SystemInit)
    i.TIM3_IRQHandler                        0x08007c9c   Section        0  stm32f0xx_it.o(i.TIM3_IRQHandler)
    i.TIM_ClearITPendingBit                  0x08007efc   Section        0  stm32f0xx_tim.o(i.TIM_ClearITPendingBit)
    i.TIM_Cmd                                0x08007f04   Section        0  stm32f0xx_tim.o(i.TIM_Cmd)
    i.TIM_Config                             0x08007f20   Section        0  main.o(i.TIM_Config)
    i.TIM_GetCapture3                        0x08007f9c   Section        0  stm32f0xx_tim.o(i.TIM_GetCapture3)
    i.TIM_GetITStatus                        0x08007fa2   Section        0  stm32f0xx_tim.o(i.TIM_GetITStatus)
    i.TIM_ITConfig                           0x08007fc8   Section        0  stm32f0xx_tim.o(i.TIM_ITConfig)
    i.TIM_PrescalerConfig                    0x08007fdc   Section        0  stm32f0xx_tim.o(i.TIM_PrescalerConfig)
    i.TIM_SetCompare3                        0x08007fe2   Section        0  stm32f0xx_tim.o(i.TIM_SetCompare3)
    i.TIM_TimeBaseInit                       0x08007fe8   Section        0  stm32f0xx_tim.o(i.TIM_TimeBaseInit)
    i.UART0_ReceiveData                      0x08008064   Section        0  usart1.o(i.UART0_ReceiveData)
    i.UDPSendData_Index                      0x080080a4   Section        0  gsm.o(i.UDPSendData_Index)
    i.USART1_IRQHandler                      0x080081dc   Section        0  usart1.o(i.USART1_IRQHandler)
    i.USART2_IRQHandler                      0x0800847c   Section        0  usart1.o(i.USART2_IRQHandler)
    i.USART_ClearITPendingBit                0x08008834   Section        0  stm32f0xx_usart.o(i.USART_ClearITPendingBit)
    i.USART_Cmd                              0x08008846   Section        0  stm32f0xx_usart.o(i.USART_Cmd)
    i.USART_DeInit                           0x08008860   Section        0  stm32f0xx_usart.o(i.USART_DeInit)
    i.USART_GetITStatus                      0x080088a0   Section        0  stm32f0xx_usart.o(i.USART_GetITStatus)
    i.USART_ITConfig                         0x080088ee   Section        0  stm32f0xx_usart.o(i.USART_ITConfig)
    i.USART_Init                             0x08008930   Section        0  stm32f0xx_usart.o(i.USART_Init)
    i.USART_ReceiveData                      0x08008a20   Section        0  stm32f0xx_usart.o(i.USART_ReceiveData)
    i.USART_SendData                         0x08008a2a   Section        0  stm32f0xx_usart.o(i.USART_SendData)
    i.UbxConfig                              0x08008a34   Section        0  usart1.o(i.UbxConfig)
    i.WaitGSMOK1                             0x08008b1c   Section        0  gsm.o(i.WaitGSMOK1)
    i.WaitGSMOK2                             0x08008bc0   Section        0  gsm.o(i.WaitGSMOK2)
    i.WaitGSM_ReadyCOPS                      0x08008ca0   Section        0  gsm.o(i.WaitGSM_ReadyCOPS)
    i.WaitGSM_ReadyNet                       0x08008dc4   Section        0  gsm.o(i.WaitGSM_ReadyNet)
    i.WaitGSM_ReadyQIMUX                     0x08008e8c   Section        0  gsm.o(i.WaitGSM_ReadyQIMUX)
    i.__ARM_common_switch8                   0x08008f18   Section        0  smscmd.o(i.__ARM_common_switch8)
    i.__scatterload_copy                     0x08008f34   Section       14  handlers.o(i.__scatterload_copy)
    i.__scatterload_null                     0x08008f42   Section        2  handlers.o(i.__scatterload_null)
    i.__scatterload_zeroinit                 0x08008f44   Section       14  handlers.o(i.__scatterload_zeroinit)
    i.all_ascii0                             0x08008f52   Section        0  smscmd.o(i.all_ascii0)
    i.analysis                               0x08008f70   Section        0  gprs.o(i.analysis)
    i.analysis_sms                           0x0800901c   Section        0  smscmd.o(i.analysis_sms)
    i.asciitodate                            0x08009cec   Section        0  gprs.o(i.asciitodate)
    i.asciitodirection                       0x08009fe0   Section        0  gprs.o(i.asciitodirection)
    i.asciitohex                             0x0800a07c   Section        0  gsm.o(i.asciitohex)
    i.asciitolatitude                        0x0800a188   Section        0  gprs.o(i.asciitolatitude)
    i.asciitospeed                           0x0800a22c   Section        0  gprs.o(i.asciitospeed)
    i.check_sleep_state                      0x0800a2ec   Section        0  main.o(i.check_sleep_state)
    i.cmd_0002                               0x0800a328   Section        0  gprs.o(i.cmd_0002)
    i.cmd_0200                               0x0800a3a0   Section        0  gprs.o(i.cmd_0200)
    i.cmd_CHINESE_POSITION_rece              0x0800a3f8   Section        0  gprs.o(i.cmd_CHINESE_POSITION_rece)
    i.cmd_CSKMG                              0x0800a47c   Section        0  smscmd.o(i.cmd_CSKMG)
    i.cmd_GENERAL_RESPONSION                 0x0800a518   Section        0  gprs.o(i.cmd_GENERAL_RESPONSION)
    i.cmd_INQUIRE_CHINESE_POSITION           0x0800a5c0   Section        0  gprs.o(i.cmd_INQUIRE_CHINESE_POSITION)
    i.cmd_INQUIRE_ONE_TERMINAL_PARAMETER     0x0800a75c   Section        0  gprs.o(i.cmd_INQUIRE_ONE_TERMINAL_PARAMETER)
    i.cmd_INQUIRE_POSITION                   0x0800abfc   Section        0  gprs.o(i.cmd_INQUIRE_POSITION)
    i.cmd_INQUIRE_TERMINAL_PARAMETER         0x0800ac40   Section        0  gprs.o(i.cmd_INQUIRE_TERMINAL_PARAMETER)
    i.cmd_OIL_BREAK                          0x0800b048   Section        0  gprs.o(i.cmd_OIL_BREAK)
    i.cmd_SET_GPRS_SERVICER                  0x0800b0fc   Section        0  gprs.o(i.cmd_SET_GPRS_SERVICER)
    i.cmd_SET_TERMINAL_PARAMETER             0x0800b100   Section        0  gprs.o(i.cmd_SET_TERMINAL_PARAMETER)
    i.cmd_TEMPORARY_POSTION                  0x0800b454   Section        0  gprs.o(i.cmd_TEMPORARY_POSTION)
    i.constructor                            0x0800b4b4   Section        0  gprs.o(i.constructor)
    i.ddi_uart1_init                         0x0800b574   Section        0  usart1.o(i.ddi_uart1_init)
    i.ddi_uart2_init                         0x0800b644   Section        0  usart1.o(i.ddi_uart2_init)
    i.ddi_uart_Write                         0x0800b6e0   Section        0  usart1.o(i.ddi_uart_Write)
    i.ddi_uart_open                          0x0800b73c   Section        0  usart1.o(i.ddi_uart_open)
    i.deal_g_ucSim900Status                  0x0800b870   Section        0  gsm.o(i.deal_g_ucSim900Status)
    i.delayms                                0x0800b8a0   Section        0  i2c_lsm330.o(i.delayms)
    i.delayms_nodog                          0x0800b8c0   Section        0  main.o(i.delayms_nodog)
    i.delayus                                0x0800b8d6   Section        0  i2c_lsm330.o(i.delayus)
    i.energy                                 0x0800b910   Section        0  main.o(i.energy)
    i.flash_copy                             0x0800bc0c   Section        0  ddi_norflash.o(i.flash_copy)
    i.get_ACC_CHECK_status                   0x0800bc58   Section        0  led.o(i.get_ACC_CHECK_status)
    i.get_ALARM_status                       0x0800bc72   Section        0  led.o(i.get_ALARM_status)
    i.get_GSM_RING_status                    0x0800bc8c   Section        0  led.o(i.get_GSM_RING_status)
    i.get_ID                                 0x0800bca8   Section        0  gprs.o(i.get_ID)
    i.get_lac_gps                            0x0800be08   Section        0  gprs.o(i.get_lac_gps)
    i.hex2BCD_ASCII                          0x0800beb8   Section        0  gsm.o(i.hex2BCD_ASCII)
    i.hex2BCD_ASCII1                         0x0800c000   Section        0  gsm.o(i.hex2BCD_ASCII1)
    i.hextoascii                             0x0800c020   Section        0  gsm.o(i.hextoascii)
    i.isdigit_w                              0x0800c076   Section        0  gsm.o(i.isdigit_w)
    i.isdigtit_len                           0x0800c088   Section        0  gsm.o(i.isdigtit_len)
    i.lsm330_SDA_IN                          0x0800c0c0   Section        0  i2c_lsm330.o(i.lsm330_SDA_IN)
    i.lsm330_SDA_OUT                         0x0800c0e8   Section        0  i2c_lsm330.o(i.lsm330_SDA_OUT)
    i.main                                   0x0800c114   Section        0  main.o(i.main)
    i.mileage_flash_init                     0x0800c960   Section        0  ddi_norflash.o(i.mileage_flash_init)
    i.mileage_init                           0x0800c9ec   Section        0  ddi_norflash.o(i.mileage_init)
    i.mileage_read                           0x0800cab0   Section        0  ddi_norflash.o(i.mileage_read)
    i.mileage_write                          0x0800cb28   Section        0  ddi_norflash.o(i.mileage_write)
    i.porttou32                              0x0800cd04   Section        0  gprs.o(i.porttou32)
    i.reset_gps                              0x0800cd34   Section        0  gps.o(i.reset_gps)
    i.send_chinese_sms                       0x0800cd60   Section        0  gsm.o(i.send_chinese_sms)
    i.send_location_gprs                     0x0800cea8   Section        0  gprs.o(i.send_location_gprs)
    i.setSMS                                 0x0800d36c   Section        0  smscmd.o(i.setSMS)
    i.set_GPS_POWERON                        0x0800d4b4   Section        0  led.o(i.set_GPS_POWERON)
    i.set_Impact                             0x0800d4d4   Section        0  lsm330dlc_driver.o(i.set_Impact)
    i.set_OIL_BREAK                          0x0800d4fa   Section        0  led.o(i.set_OIL_BREAK)
    i.sub_cxcs                               0x0800d520   Section        0  smscmd.o(i.sub_cxcs)
    i.swapHLchar                             0x0800d9d0   Section        0  gprs.o(i.swapHLchar)
    i.sys_Init                               0x0800d9f8   Section        0  main.o(i.sys_Init)
    i.test_a_gps                             0x0800da98   Section        0  gprs.o(i.test_a_gps)
    i.u32toport                              0x0800dcfc   Section        0  gprs.o(i.u32toport)
    i.uploadLAC_InquireChinese               0x0800dd9c   Section        0  gprs.o(i.uploadLAC_InquireChinese)
    .constdata                               0x0800de8c   Section       11  smscmd.o(.constdata)
    .constdata                               0x0800de97   Section       24  gprs.o(.constdata)
    .constdata                               0x0800deb0   Section      255  gsm.o(.constdata)
    .constdata                               0x0800dfb0   Section       28  led.o(.constdata)
    .constdata                               0x0800dfcc   Section      118  main.o(.constdata)
    .data                                    0x20000000   Section       16  smscmd.o(.data)
    .data                                    0x20000010   Section       75  stm32f0xx_it.o(.data)
    proGPRSCmdFlag_counter                   0x20000047   Data           1  stm32f0xx_it.o(.data)
    tencounter                               0x2000004a   Data           1  stm32f0xx_it.o(.data)
    backup_mileage_64                        0x20000050   Data           8  stm32f0xx_it.o(.data)
    alarm_counter                            0x20000058   Data           1  stm32f0xx_it.o(.data)
    ACC_counter_ON                           0x20000059   Data           1  stm32f0xx_it.o(.data)
    ACC_counter_Off                          0x2000005a   Data           1  stm32f0xx_it.o(.data)
    .data                                    0x2000005c   Section       20  system_stm32f0xx.o(.data)
    .data                                    0x20000070   Section      104  gprs.o(.data)
    latitude_b                               0x20000074   Data           4  gprs.o(.data)
    longitude_b                              0x20000078   Data           4  gprs.o(.data)
    Lac_b                                    0x2000007c   Data           4  gprs.o(.data)
    LacID_b                                  0x20000080   Data           4  gprs.o(.data)
    i                                        0x200000a8   Data           4  gprs.o(.data)
    ptmp                                     0x200000ac   Data           4  gprs.o(.data)
    SMS_speed_turn                           0x200000b0   Data           1  gprs.o(.data)
    daycnt                                   0x200000b2   Data           2  gprs.o(.data)
    i                                        0x200000b4   Data           4  gprs.o(.data)
    ptmp                                     0x200000b8   Data           4  gprs.o(.data)
    SMS_speed_turn                           0x200000bc   Data           1  gprs.o(.data)
    ptmp                                     0x200000c0   Data           4  gprs.o(.data)
    i                                        0x200000c4   Data           4  gprs.o(.data)
    ptmp                                     0x200000c8   Data           4  gprs.o(.data)
    .data                                    0x200000d8   Section        5  gps.o(.data)
    .data                                    0x200000e0   Section        9  gsm.o(.data)
    .data                                    0x200000ec   Section       96  main.o(.data)
    TimingDelay                              0x20000148   Data           4  main.o(.data)
    .data                                    0x2000014c   Section        1  set_system_use_uart.o(.data)
    paraset_flag                             0x2000014c   Data           1  set_system_use_uart.o(.data)
    .data                                    0x20000150   Section        4  i2c_lsm330.o(.data)
    .data                                    0x20000154   Section       31  usart1.o(.data)
    first                                    0x2000016e   Data           1  usart1.o(.data)
    dollar                                   0x2000016f   Data           1  usart1.o(.data)
    gprmc                                    0x20000170   Data           1  usart1.o(.data)
    recv_complete_flag                       0x20000171   Data           1  usart1.o(.data)
    V_counter                                0x20000172   Data           1  usart1.o(.data)
    .data                                    0x20000173   Section       16  stm32f0xx_rcc.o(.data)
    APBAHBPrescTable                         0x20000173   Data          16  stm32f0xx_rcc.o(.data)
    .bss                                     0x20000184   Section      490  smscmd.o(.bss)
    .bss                                     0x2000036e   Section       10  gprs.o(.bss)
    .bss                                     0x20000378   Section       52  gps.o(.bss)
    .bss                                     0x200003b0   Section     1912  main.o(.bss)
    .bss                                     0x20000b28   Section      672  usart1.o(.bss)
    STACK                                    0x20000dc8   Section     4096  startup_stm32f0xx.o(STACK)

    Global Symbols

    Symbol Name                              Value     Ov Type        Size  Object(Section)

    BuildAttributes$$THM_ISAv3M$S$PE$A:L22$X:L11$S22$IEEE1$IW$USESV6$~STKCKD$USESV7$~SHL$OTIME$ROPI$IEEEX$EBA8$MICROLIB$REQ8$PRES8$EABIv2 0x00000000   Number         0  anon$$obj.o ABSOLUTE
    __ARM_use_no_argv                        0x00000000   Number         0  main.o ABSOLUTE
    __cpp_initialize__aeabi_                  - Undefined Weak Reference
    __cxa_finalize                            - Undefined Weak Reference
    _clock_init                               - Undefined Weak Reference
    _microlib_exit                            - Undefined Weak Reference
    __Vectors_Size                           0x000000c0   Number         0  startup_stm32f0xx.o ABSOLUTE
    __Vectors                                0x08000000   Data           4  startup_stm32f0xx.o(RESET)
    __Vectors_End                            0x080000c0   Data           0  startup_stm32f0xx.o(RESET)
    __main                                   0x080000c1   Thumb Code     0  entry.o(.ARM.Collect$$$$00000000)
    _main_stk                                0x080000c1   Thumb Code     0  entry2.o(.ARM.Collect$$$$00000001)
    _main_scatterload                        0x080000c5   Thumb Code     0  entry5.o(.ARM.Collect$$$$00000004)
    __main_after_scatterload                 0x080000c9   Thumb Code     0  entry5.o(.ARM.Collect$$$$00000004)
    _main_clock                              0x080000c9   Thumb Code     0  entry7b.o(.ARM.Collect$$$$00000008)
    _main_cpp_init                           0x080000c9   Thumb Code     0  entry8b.o(.ARM.Collect$$$$0000000A)
    _main_init                               0x080000c9   Thumb Code     0  entry9a.o(.ARM.Collect$$$$0000000B)
    __rt_final_cpp                           0x080000d1   Thumb Code     0  entry10a.o(.ARM.Collect$$$$0000000D)
    __rt_final_exit                          0x080000d1   Thumb Code     0  entry11a.o(.ARM.Collect$$$$0000000F)
    Reset_Handler                            0x080000d5   Thumb Code     8  startup_stm32f0xx.o(.text)
    ADC1_COMP_IRQHandler                     0x080000e7   Thumb Code     0  startup_stm32f0xx.o(.text)
    CEC_IRQHandler                           0x080000e7   Thumb Code     0  startup_stm32f0xx.o(.text)
    DMA1_Channel1_IRQHandler                 0x080000e7   Thumb Code     0  startup_stm32f0xx.o(.text)
    DMA1_Channel2_3_IRQHandler               0x080000e7   Thumb Code     0  startup_stm32f0xx.o(.text)
    DMA1_Channel4_5_IRQHandler               0x080000e7   Thumb Code     0  startup_stm32f0xx.o(.text)
    EXTI2_3_IRQHandler                       0x080000e7   Thumb Code     0  startup_stm32f0xx.o(.text)
    FLASH_IRQHandler                         0x080000e7   Thumb Code     0  startup_stm32f0xx.o(.text)
    I2C1_IRQHandler                          0x080000e7   Thumb Code     0  startup_stm32f0xx.o(.text)
    I2C2_IRQHandler                          0x080000e7   Thumb Code     0  startup_stm32f0xx.o(.text)
    PVD_IRQHandler                           0x080000e7   Thumb Code     0  startup_stm32f0xx.o(.text)
    RCC_IRQHandler                           0x080000e7   Thumb Code     0  startup_stm32f0xx.o(.text)
    SPI1_IRQHandler                          0x080000e7   Thumb Code     0  startup_stm32f0xx.o(.text)
    SPI2_IRQHandler                          0x080000e7   Thumb Code     0  startup_stm32f0xx.o(.text)
    TIM14_IRQHandler                         0x080000e7   Thumb Code     0  startup_stm32f0xx.o(.text)
    TIM15_IRQHandler                         0x080000e7   Thumb Code     0  startup_stm32f0xx.o(.text)
    TIM16_IRQHandler                         0x080000e7   Thumb Code     0  startup_stm32f0xx.o(.text)
    TIM17_IRQHandler                         0x080000e7   Thumb Code     0  startup_stm32f0xx.o(.text)
    TIM1_BRK_UP_TRG_COM_IRQHandler           0x080000e7   Thumb Code     0  startup_stm32f0xx.o(.text)
    TIM1_CC_IRQHandler                       0x080000e7   Thumb Code     0  startup_stm32f0xx.o(.text)
    TIM2_IRQHandler                          0x080000e7   Thumb Code     0  startup_stm32f0xx.o(.text)
    TIM6_DAC_IRQHandler                      0x080000e7   Thumb Code     0  startup_stm32f0xx.o(.text)
    TS_IRQHandler                            0x080000e7   Thumb Code     0  startup_stm32f0xx.o(.text)
    WWDG_IRQHandler                          0x080000e7   Thumb Code     0  startup_stm32f0xx.o(.text)
    __aeabi_uidiv                            0x080000f1   Thumb Code     0  uidiv.o(.text)
    __aeabi_uidivmod                         0x080000f1   Thumb Code    44  uidiv.o(.text)
    __aeabi_idiv                             0x0800011d   Thumb Code     0  idiv.o(.text)
    __aeabi_idivmod                          0x0800011d   Thumb Code    40  idiv.o(.text)
    __aeabi_uldivmod                         0x08000145   Thumb Code    96  uldiv.o(.text)
    __aeabi_memcpy                           0x080001a5   Thumb Code    36  memcpya.o(.text)
    __aeabi_memcpy4                          0x080001a5   Thumb Code     0  memcpya.o(.text)
    __aeabi_memcpy8                          0x080001a5   Thumb Code     0  memcpya.o(.text)
    __aeabi_memset                           0x080001c9   Thumb Code    14  memseta.o(.text)
    __aeabi_memset4                          0x080001c9   Thumb Code     0  memseta.o(.text)
    __aeabi_memset8                          0x080001c9   Thumb Code     0  memseta.o(.text)
    __aeabi_memclr                           0x080001d7   Thumb Code     4  memseta.o(.text)
    __aeabi_memclr4                          0x080001d7   Thumb Code     0  memseta.o(.text)
    __aeabi_memclr8                          0x080001d7   Thumb Code     0  memseta.o(.text)
    _memset$wrapper                          0x080001db   Thumb Code    18  memseta.o(.text)
    strcat                                   0x080001ed   Thumb Code    24  strcat.o(.text)
    strstr                                   0x08000205   Thumb Code    40  strstr.o(.text)
    strncpy                                  0x0800022d   Thumb Code    26  strncpy.o(.text)
    strlen                                   0x08000247   Thumb Code    14  strlen.o(.text)
    strncat                                  0x08000255   Thumb Code    40  strncat.o(.text)
    strcpy                                   0x0800027d   Thumb Code    18  strcpy.o(.text)
    strncmp                                  0x0800028f   Thumb Code    30  strncmp.o(.text)
    __aeabi_uread4                           0x080002ad   Thumb Code    20  uread4.o(.text)
    __rt_uread4                              0x080002ad   Thumb Code     0  uread4.o(.text)
    _uread4                                  0x080002ad   Thumb Code     0  uread4.o(.text)
    __aeabi_uwrite4                          0x080002c1   Thumb Code    18  uwrite4.o(.text)
    __rt_uwrite4                             0x080002c1   Thumb Code     0  uwrite4.o(.text)
    _uwrite4                                 0x080002c1   Thumb Code     0  uwrite4.o(.text)
    __aeabi_fmul                             0x080002d3   Thumb Code   122  fmul.o(.text)
    __aeabi_fdiv                             0x0800034d   Thumb Code   124  fdiv.o(.text)
    __aeabi_ui2f                             0x080003c9   Thumb Code    14  ffltui.o(.text)
    __aeabi_f2uiz                            0x080003d7   Thumb Code    40  ffixui.o(.text)
    __aeabi_llsl                             0x080003ff   Thumb Code    32  llshl.o(.text)
    _ll_shift_l                              0x080003ff   Thumb Code     0  llshl.o(.text)
    __aeabi_llsr                             0x0800041f   Thumb Code    34  llushr.o(.text)
    _ll_ushift_r                             0x0800041f   Thumb Code     0  llushr.o(.text)
    __I$use$fp                               0x08000441   Thumb Code     0  iusefp.o(.text)
    _float_round                             0x08000441   Thumb Code    16  fepilogue.o(.text)
    _float_epilogue                          0x08000451   Thumb Code   116  fepilogue.o(.text)
    __scatterload                            0x080004c5   Thumb Code    28  init.o(.text)
    __scatterload_rt2                        0x080004c5   Thumb Code     0  init.o(.text)
    __decompress                             0x080004e9   Thumb Code     0  __dczerorl.o(.text)
    __decompress0                            0x080004e9   Thumb Code    58  __dczerorl.o(.text)
    ADC1_Config                              0x08000525   Thumb Code   146  adc.o(i.ADC1_Config)
    ADC_AutoPowerOffCmd                      0x080005c1   Thumb Code    28  stm32f0xx_adc.o(i.ADC_AutoPowerOffCmd)
    ADC_ChannelConfig                        0x080005dd   Thumb Code    24  stm32f0xx_adc.o(i.ADC_ChannelConfig)
    ADC_Cmd                                  0x080005f5   Thumb Code    24  stm32f0xx_adc.o(i.ADC_Cmd)
    ADC_DeInit                               0x0800060d   Thumb Code    28  stm32f0xx_adc.o(i.ADC_DeInit)
    ADC_GetCalibrationFactor                 0x0800062d   Thumb Code    58  stm32f0xx_adc.o(i.ADC_GetCalibrationFactor)
    ADC_GetConversionValue                   0x08000667   Thumb Code     8  stm32f0xx_adc.o(i.ADC_GetConversionValue)
    ADC_GetFlagStatus                        0x0800066f   Thumb Code    44  stm32f0xx_adc.o(i.ADC_GetFlagStatus)
    ADC_Init                                 0x0800069d   Thumb Code    40  stm32f0xx_adc.o(i.ADC_Init)
    ADC_StartOfConversion                    0x080006c9   Thumb Code    10  stm32f0xx_adc.o(i.ADC_StartOfConversion)
    ADC_StopOfConversion                     0x080006d3   Thumb Code    10  stm32f0xx_adc.o(i.ADC_StopOfConversion)
    ADC_WaitModeCmd                          0x080006dd   Thumb Code    28  stm32f0xx_adc.o(i.ADC_WaitModeCmd)
    Backup_Store_System_Para                 0x080006f9   Thumb Code   126  main.o(i.Backup_Store_System_Para)
    BatteryStatusGet                         0x08000781   Thumb Code    98  gsm.o(i.BatteryStatusGet)
    CheckSum                                 0x080007fd   Thumb Code    94  gps.o(i.CheckSum)
    Check_AT                                 0x0800085d   Thumb Code    68  led.o(i.Check_AT)
    Clear_All_GSM_flag                       0x080008b5   Thumb Code    16  led.o(i.Clear_All_GSM_flag)
    ClrGSMBuff                               0x080008d1   Thumb Code    20  gsm.o(i.ClrGSMBuff)
    Cmd_ACC                                  0x080008ed   Thumb Code   212  smscmd.o(i.Cmd_ACC)
    Cmd_CXCS                                 0x080009f5   Thumb Code   188  smscmd.o(i.Cmd_CXCS)
    Cmd_CXZD                                 0x08000ac9   Thumb Code   526  smscmd.o(i.Cmd_CXZD)
    Cmd_CellID                               0x08000d7d   Thumb Code   200  smscmd.o(i.Cmd_CellID)
    Cmd_DeviceInfo                           0x08000e95   Thumb Code   666  smscmd.o(i.Cmd_DeviceInfo)
    Cmd_Duration                             0x080011ad   Thumb Code   510  smscmd.o(i.Cmd_Duration)
    Cmd_ENAUTOSMS                            0x08001405   Thumb Code   208  smscmd.o(i.Cmd_ENAUTOSMS)
    Cmd_IMEI                                 0x08001515   Thumb Code   186  smscmd.o(i.Cmd_IMEI)
    Cmd_Initial                              0x080015fd   Thumb Code    80  smscmd.o(i.Cmd_Initial)
    Cmd_NewNum                               0x08001671   Thumb Code   346  smscmd.o(i.Cmd_NewNum)
    Cmd_Position                             0x08001811   Thumb Code    70  smscmd.o(i.Cmd_Position)
    Cmd_SETM                                 0x08001875   Thumb Code  1498  smscmd.o(i.Cmd_SETM)
    Cmd_SetMode                              0x08001e59   Thumb Code   288  smscmd.o(i.Cmd_SetMode)
    Cmd_SetNET                               0x08002021   Thumb Code   992  smscmd.o(i.Cmd_SetNET)
    Cmd_SetPsw                               0x08002489   Thumb Code   178  smscmd.o(i.Cmd_SetPsw)
    Cmd_SetWakeTime                          0x08002599   Thumb Code   430  smscmd.o(i.Cmd_SetWakeTime)
    Cmd_Setmid                               0x08002785   Thumb Code   268  smscmd.o(i.Cmd_Setmid)
    Cmd_ShowRegNum                           0x080028e5   Thumb Code   236  smscmd.o(i.Cmd_ShowRegNum)
    Cmd_SleepTime                            0x08002a05   Thumb Code   438  smscmd.o(i.Cmd_SleepTime)
    Cmd_SpeedLimit                           0x08002c15   Thumb Code   514  smscmd.o(i.Cmd_SpeedLimit)
    Cmd_relay                                0x08002e75   Thumb Code   204  smscmd.o(i.Cmd_relay)
    Cmd_shocks                               0x08002f79   Thumb Code   288  smscmd.o(i.Cmd_shocks)
    Configuration_TEXT_SMS                   0x080030c1   Thumb Code   182  gsm.o(i.Configuration_TEXT_SMS)
    Deal_GSMRTC                              0x08003225   Thumb Code   170  gsm.o(i.Deal_GSMRTC)
    Deal_GSM_LAC                             0x080032f9   Thumb Code    86  gprs.o(i.Deal_GSM_LAC)
    Deal_SMS                                 0x0800335d   Thumb Code   456  main.o(i.Deal_SMS)
    EXTI0_1_IRQHandler                       0x080035a9   Thumb Code    20  stm32f0xx_it.o(i.EXTI0_1_IRQHandler)
    EXTI4_15_IRQHandler                      0x080035bd   Thumb Code   232  stm32f0xx_it.o(i.EXTI4_15_IRQHandler)
    EXTI_ClearITPendingBit                   0x080036d1   Thumb Code     6  stm32f0xx_exti.o(i.EXTI_ClearITPendingBit)
    EXTI_GetITStatus                         0x080036dd   Thumb Code    34  stm32f0xx_exti.o(i.EXTI_GetITStatus)
    EXTI_Init                                0x08003705   Thumb Code   132  stm32f0xx_exti.o(i.EXTI_Init)
    FLASH_ClearFlag                          0x0800378d   Thumb Code     6  stm32f0xx_flash.o(i.FLASH_ClearFlag)
    FLASH_ErasePage                          0x08003799   Thumb Code    72  stm32f0xx_flash.o(i.FLASH_ErasePage)
    FLASH_ErasePage_Complete                 0x080037e5   Thumb Code    36  main.o(i.FLASH_ErasePage_Complete)
    FLASH_GetStatus                          0x08003809   Thumb Code    48  stm32f0xx_flash.o(i.FLASH_GetStatus)
    FLASH_Lock                               0x0800383d   Thumb Code    14  stm32f0xx_flash.o(i.FLASH_Lock)
    FLASH_ProgramWord                        0x08003851   Thumb Code   104  stm32f0xx_flash.o(i.FLASH_ProgramWord)
    FLASH_Unlock                             0x080038bd   Thumb Code    22  stm32f0xx_flash.o(i.FLASH_Unlock)
    FLASH_WaitForLastOperation               0x080038e1   Thumb Code    40  stm32f0xx_flash.o(i.FLASH_WaitForLastOperation)
    GC65_CGATT                               0x08003909   Thumb Code    82  gsm.o(i.GC65_CGATT)
    GC65_CPIN                                0x08003981   Thumb Code    72  gsm.o(i.GC65_CPIN)
    GPIO_Init                                0x080039f1   Thumb Code   144  stm32f0xx_gpio.o(i.GPIO_Init)
    GPIO_PinAFConfig                         0x08003a81   Thumb Code    68  stm32f0xx_gpio.o(i.GPIO_PinAFConfig)
    GPIO_ReadInputDataBit                    0x08003ac5   Thumb Code    18  stm32f0xx_gpio.o(i.GPIO_ReadInputDataBit)
    GPIO_ResetBits                           0x08003ad7   Thumb Code     4  stm32f0xx_gpio.o(i.GPIO_ResetBits)
    GPIO_SetBits                             0x08003adb   Thumb Code     4  stm32f0xx_gpio.o(i.GPIO_SetBits)
    GPS_Deal                                 0x08003ae1   Thumb Code   358  gprs.o(i.GPS_Deal)
    GSM_Power                                0x08003c79   Thumb Code   330  led.o(i.GSM_Power)
    GSM_QICLOSED                             0x08003e1d   Thumb Code   104  gsm.o(i.GSM_QICLOSED)
    GSM_reset                                0x08003e91   Thumb Code    44  led.o(i.GSM_reset)
    GetAvailableGPSInfoV                     0x08003ebd   Thumb Code   478  gps.o(i.GetAvailableGPSInfoV)
    GetAvailableGPSInfoV_N                   0x080040c9   Thumb Code    48  gsm.o(i.GetAvailableGPSInfoV_N)
    GetGPRSStatus                            0x080040fd   Thumb Code   174  gsm.o(i.GetGPRSStatus)
    GetVoltage                               0x08004205   Thumb Code   138  adc.o(i.GetVoltage)
    Get_Adc                                  0x08004295   Thumb Code    96  adc.o(i.Get_Adc)
    Get_GPS_module                           0x080042f9   Thumb Code    96  usart1.o(i.Get_GPS_module)
    HardFault_Handler                        0x08004385   Thumb Code    48  stm32f0xx_it.o(i.HardFault_Handler)
    IIC_lsm330_Ack                           0x080043bd   Thumb Code    52  i2c_lsm330.o(i.IIC_lsm330_Ack)
    IIC_lsm330_NAck                          0x080043f5   Thumb Code    52  i2c_lsm330.o(i.IIC_lsm330_NAck)
    IIC_lsm330_Read_Byte                     0x0800442d   Thumb Code    88  i2c_lsm330.o(i.IIC_lsm330_Read_Byte)
    IIC_lsm330_Send_Byte                     0x08004489   Thumb Code   102  i2c_lsm330.o(i.IIC_lsm330_Send_Byte)
    IIC_lsm330_Start                         0x080044f5   Thumb Code    52  i2c_lsm330.o(i.IIC_lsm330_Start)
    IIC_lsm330_Stop                          0x0800452d   Thumb Code    52  i2c_lsm330.o(i.IIC_lsm330_Stop)
    IIC_lsm330_Wait_Ack                      0x08004565   Thumb Code    78  i2c_lsm330.o(i.IIC_lsm330_Wait_Ack)
    IO_Init                                  0x080045b9   Thumb Code   258  led.o(i.IO_Init)
    IWDG_Enable                              0x080046c9   Thumb Code     8  stm32f0xx_iwdg.o(i.IWDG_Enable)
    IWDG_Feed                                0x080046d9   Thumb Code     8  wdg.o(i.IWDG_Feed)
    IWDG_Init                                0x080046e1   Thumb Code    34  wdg.o(i.IWDG_Init)
    IWDG_ReloadCounter                       0x08004709   Thumb Code     8  stm32f0xx_iwdg.o(i.IWDG_ReloadCounter)
    IWDG_SetPrescaler                        0x08004719   Thumb Code     6  stm32f0xx_iwdg.o(i.IWDG_SetPrescaler)
    IWDG_SetReload                           0x08004725   Thumb Code     6  stm32f0xx_iwdg.o(i.IWDG_SetReload)
    IWDG_WriteAccessCmd                      0x08004731   Thumb Code     6  stm32f0xx_iwdg.o(i.IWDG_WriteAccessCmd)
    InitialSetting                           0x0800473d   Thumb Code  4424  set_system_use_uart.o(i.InitialSetting)
    Is_Leap_Year                             0x0800592d   Thumb Code    60  gprs.o(i.Is_Leap_Year)
    LMS330DLC_AccGetDataRate                 0x08005969   Thumb Code    88  lsm330dlc_driver.o(i.LMS330DLC_AccGetDataRate)
    LMS330DLC_AccSetIrqDuration              0x080059c5   Thumb Code    56  lsm330dlc_driver.o(i.LMS330DLC_AccSetIrqDuration)
    LMS330DLC_AccSetThreshold                0x08005a01   Thumb Code    24  lsm330dlc_driver.o(i.LMS330DLC_AccSetThreshold)
    LMS330DLC_ReadReg                        0x08005a19   Thumb Code    64  lsm330dlc_driver.o(i.LMS330DLC_ReadReg)
    LMS330DLC_SetInt1Duration                0x08005a59   Thumb Code    30  lsm330dlc_driver.o(i.LMS330DLC_SetInt1Duration)
    LMS330DLC_SetInt1Threshold               0x08005a77   Thumb Code    30  lsm330dlc_driver.o(i.LMS330DLC_SetInt1Threshold)
    LMS330DLC_WriteReg                       0x08005a95   Thumb Code    48  lsm330dlc_driver.o(i.LMS330DLC_WriteReg)
    NMI_Handler                              0x08005ac5   Thumb Code     2  stm32f0xx_it.o(i.NMI_Handler)
    NVIC_Init                                0x08005ac9   Thumb Code   106  stm32f0xx_misc.o(i.NVIC_Init)
    PWR_BackupAccessCmd                      0x08005bb1   Thumb Code    36  stm32f0xx_pwr.o(i.PWR_BackupAccessCmd)
    PWR_EnterSTOPMode                        0x08005bd9   Thumb Code    60  stm32f0xx_pwr.o(i.PWR_EnterSTOPMode)
    PendSV_Handler                           0x08005c1d   Thumb Code     2  stm32f0xx_it.o(i.PendSV_Handler)
    PrintATF                                 0x08005c21   Thumb Code   108  set_system_use_uart.o(i.PrintATF)
    RCC_AHBPeriphClockCmd                    0x08005cb1   Thumb Code    28  stm32f0xx_rcc.o(i.RCC_AHBPeriphClockCmd)
    RCC_APB1PeriphClockCmd                   0x08005cd1   Thumb Code    28  stm32f0xx_rcc.o(i.RCC_APB1PeriphClockCmd)
    RCC_APB1PeriphResetCmd                   0x08005cf1   Thumb Code    28  stm32f0xx_rcc.o(i.RCC_APB1PeriphResetCmd)
    RCC_APB2PeriphClockCmd                   0x08005d11   Thumb Code    28  stm32f0xx_rcc.o(i.RCC_APB2PeriphClockCmd)
    RCC_APB2PeriphResetCmd                   0x08005d31   Thumb Code    28  stm32f0xx_rcc.o(i.RCC_APB2PeriphResetCmd)
    RCC_BackupResetCmd                       0x08005d51   Thumb Code    36  stm32f0xx_rcc.o(i.RCC_BackupResetCmd)
    RCC_GetClocksFreq                        0x08005d79   Thumb Code   338  stm32f0xx_rcc.o(i.RCC_GetClocksFreq)
    RCC_GetFlagStatus                        0x08005ee5   Thumb Code    66  stm32f0xx_rcc.o(i.RCC_GetFlagStatus)
    RCC_LSICmd                               0x08005f2d   Thumb Code    32  stm32f0xx_rcc.o(i.RCC_LSICmd)
    RCC_RTCCLKCmd                            0x08005f51   Thumb Code    36  stm32f0xx_rcc.o(i.RCC_RTCCLKCmd)
    RCC_RTCCLKConfig                         0x08005f79   Thumb Code    12  stm32f0xx_rcc.o(i.RCC_RTCCLKConfig)
    RING_EXTI0_Config                        0x08005f89   Thumb Code    98  led.o(i.RING_EXTI0_Config)
    RTC2Position_time                        0x08005ff1   Thumb Code    74  gprs.o(i.RTC2Position_time)
    RTC_AlarmCmd                             0x08006041   Thumb Code   104  stm32f0xx_rtc.o(i.RTC_AlarmCmd)
    RTC_Bcd2ToByte                           0x080060ad   Thumb Code    26  stm32f0xx_rtc.o(i.RTC_Bcd2ToByte)
    RTC_ByteToBcd2                           0x080060c7   Thumb Code    28  stm32f0xx_rtc.o(i.RTC_ByteToBcd2)
    RTC_ClearITPendingBit                    0x080060e5   Thumb Code    30  stm32f0xx_rtc.o(i.RTC_ClearITPendingBit)
    RTC_Config                               0x08006109   Thumb Code   244  main.o(i.RTC_Config)
    RTC_EnterInitMode                        0x080061fd   Thumb Code    78  stm32f0xx_rtc.o(i.RTC_EnterInitMode)
    RTC_ExitInitMode                         0x08006251   Thumb Code    14  stm32f0xx_rtc.o(i.RTC_ExitInitMode)
    RTC_Get                                  0x08006265   Thumb Code   318  gprs.o(i.RTC_Get)
    RTC_GetITStatus                          0x080063bd   Thumb Code    72  stm32f0xx_rtc.o(i.RTC_GetITStatus)
    RTC_IRQHandler                           0x08006409   Thumb Code    42  stm32f0xx_it.o(i.RTC_IRQHandler)
    RTC_ITConfig                             0x08006439   Thumb Code    94  stm32f0xx_rtc.o(i.RTC_ITConfig)
    RTC_Init                                 0x0800649d   Thumb Code    84  stm32f0xx_rtc.o(i.RTC_Init)
    RTC_Set                                  0x080064f5   Thumb Code   160  gprs.o(i.RTC_Set)
    RTC_SetAlarm                             0x080065b5   Thumb Code   208  stm32f0xx_rtc.o(i.RTC_SetAlarm)
    RTC_SetTime                              0x08006689   Thumb Code   196  stm32f0xx_rtc.o(i.RTC_SetTime)
    RTC_WaitForSynchro                       0x08006755   Thumb Code   100  stm32f0xx_rtc.o(i.RTC_WaitForSynchro)
    RestoreSystem                            0x080067bd   Thumb Code   224  main.o(i.RestoreSystem)
    SET_APN                                  0x080068c9   Thumb Code   148  gsm.o(i.SET_APN)
    SVC_Handler                              0x08006971   Thumb Code     2  stm32f0xx_it.o(i.SVC_Handler)
    SYSCFG_EXTILineConfig                    0x08006975   Thumb Code    60  stm32f0xx_syscfg.o(i.SYSCFG_EXTILineConfig)
    SYSCLKConfig_STOP                        0x080069b5   Thumb Code   116  main.o(i.SYSCLKConfig_STOP)
    SendALARMSMS1                            0x08006a31   Thumb Code    16  gsm.o(i.SendALARMSMS1)
    SendGprs_Index                           0x08006a49   Thumb Code   364  gprs.o(i.SendGprs_Index)
    SendLocaSMS                              0x08006c01   Thumb Code   534  gsm.o(i.SendLocaSMS)
    SendLocaSMS1                             0x08006e45   Thumb Code    18  gsm.o(i.SendLocaSMS1)
    SendMsg                                  0x08006e59   Thumb Code   210  gsm.o(i.SendMsg)
    SendMsg_Parameter_error                  0x08006f39   Thumb Code    14  gsm.o(i.SendMsg_Parameter_error)
    SendMsg_Password_error                   0x08006f61   Thumb Code    14  gsm.o(i.SendMsg_Password_error)
    SendMsg_UCS2                             0x08006f85   Thumb Code   252  gsm.o(i.SendMsg_UCS2)
    Send_lowpower_LocaSMS                    0x08007099   Thumb Code    16  gsm.o(i.Send_lowpower_LocaSMS)
    Send_speed_ALARMSMS                      0x080070b5   Thumb Code   104  gsm.o(i.Send_speed_ALARMSMS)
    SetGPRS                                  0x08007125   Thumb Code   216  gprs.o(i.SetGPRS)
    Set_Store_System_Para                    0x0800729d   Thumb Code   124  main.o(i.Set_Store_System_Para)
    StartGPRS                                0x08007321   Thumb Code   670  gsm.o(i.StartGPRS)
    StartGPRStoAGPS                          0x08007721   Thumb Code   386  gsm.o(i.StartGPRStoAGPS)
    Store_System_Para                        0x08007949   Thumb Code    78  main.o(i.Store_System_Para)
    SysTick_Handler                          0x080079e1   Thumb Code   464  stm32f0xx_it.o(i.SysTick_Handler)
    SystemInit                               0x08007c21   Thumb Code   110  system_stm32f0xx.o(i.SystemInit)
    TIM3_IRQHandler                          0x08007c9d   Thumb Code   494  stm32f0xx_it.o(i.TIM3_IRQHandler)
    TIM_ClearITPendingBit                    0x08007efd   Thumb Code     6  stm32f0xx_tim.o(i.TIM_ClearITPendingBit)
    TIM_Cmd                                  0x08007f05   Thumb Code    24  stm32f0xx_tim.o(i.TIM_Cmd)
    TIM_Config                               0x08007f21   Thumb Code    98  main.o(i.TIM_Config)
    TIM_GetCapture3                          0x08007f9d   Thumb Code     6  stm32f0xx_tim.o(i.TIM_GetCapture3)
    TIM_GetITStatus                          0x08007fa3   Thumb Code    38  stm32f0xx_tim.o(i.TIM_GetITStatus)
    TIM_ITConfig                             0x08007fc9   Thumb Code    20  stm32f0xx_tim.o(i.TIM_ITConfig)
    TIM_PrescalerConfig                      0x08007fdd   Thumb Code     6  stm32f0xx_tim.o(i.TIM_PrescalerConfig)
    TIM_SetCompare3                          0x08007fe3   Thumb Code     4  stm32f0xx_tim.o(i.TIM_SetCompare3)
    TIM_TimeBaseInit                         0x08007fe9   Thumb Code    90  stm32f0xx_tim.o(i.TIM_TimeBaseInit)
    UART0_ReceiveData                        0x08008065   Thumb Code    54  usart1.o(i.UART0_ReceiveData)
    UDPSendData_Index                        0x080080a5   Thumb Code   260  gsm.o(i.UDPSendData_Index)
    USART1_IRQHandler                        0x080081dd   Thumb Code   554  usart1.o(i.USART1_IRQHandler)
    USART2_IRQHandler                        0x0800847d   Thumb Code   786  usart1.o(i.USART2_IRQHandler)
    USART_ClearITPendingBit                  0x08008835   Thumb Code    18  stm32f0xx_usart.o(i.USART_ClearITPendingBit)
    USART_Cmd                                0x08008847   Thumb Code    24  stm32f0xx_usart.o(i.USART_Cmd)
    USART_DeInit                             0x08008861   Thumb Code    56  stm32f0xx_usart.o(i.USART_DeInit)
    USART_GetITStatus                        0x080088a1   Thumb Code    78  stm32f0xx_usart.o(i.USART_GetITStatus)
    USART_ITConfig                           0x080088ef   Thumb Code    66  stm32f0xx_usart.o(i.USART_ITConfig)
    USART_Init                               0x08008931   Thumb Code   230  stm32f0xx_usart.o(i.USART_Init)
    USART_ReceiveData                        0x08008a21   Thumb Code    10  stm32f0xx_usart.o(i.USART_ReceiveData)
    USART_SendData                           0x08008a2b   Thumb Code     8  stm32f0xx_usart.o(i.USART_SendData)
    UbxConfig                                0x08008a35   Thumb Code   134  usart1.o(i.UbxConfig)
    WaitGSMOK1                               0x08008b1d   Thumb Code   122  gsm.o(i.WaitGSMOK1)
    WaitGSMOK2                               0x08008bc1   Thumb Code   152  gsm.o(i.WaitGSMOK2)
    WaitGSM_ReadyCOPS                        0x08008ca1   Thumb Code   206  gsm.o(i.WaitGSM_ReadyCOPS)
    WaitGSM_ReadyNet                         0x08008dc5   Thumb Code   136  gsm.o(i.WaitGSM_ReadyNet)
    WaitGSM_ReadyQIMUX                       0x08008e8d   Thumb Code    94  gsm.o(i.WaitGSM_ReadyQIMUX)
    __ARM_common_switch8                     0x08008f19   Thumb Code    28  smscmd.o(i.__ARM_common_switch8)
    __scatterload_copy                       0x08008f35   Thumb Code    14  handlers.o(i.__scatterload_copy)
    __scatterload_null                       0x08008f43   Thumb Code     2  handlers.o(i.__scatterload_null)
    __scatterload_zeroinit                   0x08008f45   Thumb Code    14  handlers.o(i.__scatterload_zeroinit)
    all_ascii0                               0x08008f53   Thumb Code    30  smscmd.o(i.all_ascii0)
    analysis                                 0x08008f71   Thumb Code   172  gprs.o(i.analysis)
    analysis_sms                             0x0800901d   Thumb Code  3194  smscmd.o(i.analysis_sms)
    asciitodate                              0x08009ced   Thumb Code   756  gprs.o(i.asciitodate)
    asciitodirection                         0x08009fe1   Thumb Code   156  gprs.o(i.asciitodirection)
    asciitohex                               0x0800a07d   Thumb Code   266  gsm.o(i.asciitohex)
    asciitolatitude                          0x0800a189   Thumb Code   152  gprs.o(i.asciitolatitude)
    asciitospeed                             0x0800a22d   Thumb Code   188  gprs.o(i.asciitospeed)
    check_sleep_state                        0x0800a2ed   Thumb Code    48  main.o(i.check_sleep_state)
    cmd_0002                                 0x0800a329   Thumb Code   106  gprs.o(i.cmd_0002)
    cmd_0200                                 0x0800a3a1   Thumb Code    62  gprs.o(i.cmd_0200)
    cmd_CHINESE_POSITION_rece                0x0800a3f9   Thumb Code   110  gprs.o(i.cmd_CHINESE_POSITION_rece)
    cmd_CSKMG                                0x0800a47d   Thumb Code   102  smscmd.o(i.cmd_CSKMG)
    cmd_GENERAL_RESPONSION                   0x0800a519   Thumb Code   146  gprs.o(i.cmd_GENERAL_RESPONSION)
    cmd_INQUIRE_CHINESE_POSITION             0x0800a5c1   Thumb Code   374  gprs.o(i.cmd_INQUIRE_CHINESE_POSITION)
    cmd_INQUIRE_ONE_TERMINAL_PARAMETER       0x0800a75d   Thumb Code  1176  gprs.o(i.cmd_INQUIRE_ONE_TERMINAL_PARAMETER)
    cmd_INQUIRE_POSITION                     0x0800abfd   Thumb Code    48  gprs.o(i.cmd_INQUIRE_POSITION)
    cmd_INQUIRE_TERMINAL_PARAMETER           0x0800ac41   Thumb Code  1032  gprs.o(i.cmd_INQUIRE_TERMINAL_PARAMETER)
    cmd_OIL_BREAK                            0x0800b049   Thumb Code   142  gprs.o(i.cmd_OIL_BREAK)
    cmd_SET_GPRS_SERVICER                    0x0800b0fd   Thumb Code     2  gprs.o(i.cmd_SET_GPRS_SERVICER)
    cmd_SET_TERMINAL_PARAMETER               0x0800b101   Thumb Code   828  gprs.o(i.cmd_SET_TERMINAL_PARAMETER)
    cmd_TEMPORARY_POSTION                    0x0800b455   Thumb Code    80  gprs.o(i.cmd_TEMPORARY_POSTION)
    constructor                              0x0800b4b5   Thumb Code   192  gprs.o(i.constructor)
    ddi_uart1_init                           0x0800b575   Thumb Code   198  usart1.o(i.ddi_uart1_init)
    ddi_uart2_init                           0x0800b645   Thumb Code   146  usart1.o(i.ddi_uart2_init)
    ddi_uart_Write                           0x0800b6e1   Thumb Code    92  usart1.o(i.ddi_uart_Write)
    ddi_uart_open                            0x0800b73d   Thumb Code   254  usart1.o(i.ddi_uart_open)
    deal_g_ucSim900Status                    0x0800b871   Thumb Code    44  gsm.o(i.deal_g_ucSim900Status)
    delayms                                  0x0800b8a1   Thumb Code    28  i2c_lsm330.o(i.delayms)
    delayms_nodog                            0x0800b8c1   Thumb Code    22  main.o(i.delayms_nodog)
    delayus                                  0x0800b8d7   Thumb Code    56  i2c_lsm330.o(i.delayus)
    energy                                   0x0800b911   Thumb Code   662  main.o(i.energy)
    flash_copy                               0x0800bc0d   Thumb Code    76  ddi_norflash.o(i.flash_copy)
    get_ACC_CHECK_status                     0x0800bc59   Thumb Code    26  led.o(i.get_ACC_CHECK_status)
    get_ALARM_status                         0x0800bc73   Thumb Code    26  led.o(i.get_ALARM_status)
    get_GSM_RING_status                      0x0800bc8d   Thumb Code    22  led.o(i.get_GSM_RING_status)
    get_ID                                   0x0800bca9   Thumb Code   306  gprs.o(i.get_ID)
    get_lac_gps                              0x0800be09   Thumb Code   122  gprs.o(i.get_lac_gps)
    hex2BCD_ASCII                            0x0800beb9   Thumb Code   324  gsm.o(i.hex2BCD_ASCII)
    hex2BCD_ASCII1                           0x0800c001   Thumb Code    32  gsm.o(i.hex2BCD_ASCII1)
    hextoascii                               0x0800c021   Thumb Code    86  gsm.o(i.hextoascii)
    isdigit_w                                0x0800c077   Thumb Code    18  gsm.o(i.isdigit_w)
    isdigtit_len                             0x0800c089   Thumb Code    54  gsm.o(i.isdigtit_len)
    lsm330_SDA_IN                            0x0800c0c1   Thumb Code    36  i2c_lsm330.o(i.lsm330_SDA_IN)
    lsm330_SDA_OUT                           0x0800c0e9   Thumb Code    40  i2c_lsm330.o(i.lsm330_SDA_OUT)
    main                                     0x0800c115   Thumb Code  1968  main.o(i.main)
    mileage_flash_init                       0x0800c961   Thumb Code   128  ddi_norflash.o(i.mileage_flash_init)
    mileage_init                             0x0800c9ed   Thumb Code   184  ddi_norflash.o(i.mileage_init)
    mileage_read                             0x0800cab1   Thumb Code   114  ddi_norflash.o(i.mileage_read)
    mileage_write                            0x0800cb29   Thumb Code   464  ddi_norflash.o(i.mileage_write)
    porttou32                                0x0800cd05   Thumb Code    48  gprs.o(i.porttou32)
    reset_gps                                0x0800cd35   Thumb Code    44  gps.o(i.reset_gps)
    send_chinese_sms                         0x0800cd61   Thumb Code   170  gsm.o(i.send_chinese_sms)
    send_location_gprs                       0x0800cea9   Thumb Code  1210  gprs.o(i.send_location_gprs)
    setSMS                                   0x0800d36d   Thumb Code   300  smscmd.o(i.setSMS)
    set_GPS_POWERON                          0x0800d4b5   Thumb Code    32  led.o(i.set_GPS_POWERON)
    set_Impact                               0x0800d4d5   Thumb Code    38  lsm330dlc_driver.o(i.set_Impact)
    set_OIL_BREAK                            0x0800d4fb   Thumb Code    36  led.o(i.set_OIL_BREAK)
    sub_cxcs                                 0x0800d521   Thumb Code  1192  smscmd.o(i.sub_cxcs)
    swapHLchar                               0x0800d9d1   Thumb Code    38  gprs.o(i.swapHLchar)
    sys_Init                                 0x0800d9f9   Thumb Code   144  main.o(i.sys_Init)
    test_a_gps                               0x0800da99   Thumb Code   412  gprs.o(i.test_a_gps)
    u32toport                                0x0800dcfd   Thumb Code   150  gprs.o(i.u32toport)
    uploadLAC_InquireChinese                 0x0800dd9d   Thumb Code   212  gprs.o(i.uploadLAC_InquireChinese)
    zero_ascii                               0x0800de8c   Data          11  smscmd.o(.constdata)
    table_week                               0x0800de97   Data          12  gprs.o(.constdata)
    mon_table                                0x0800dea3   Data          12  gprs.o(.constdata)
    GPIO_PIN                                 0x0800dfb0   Data           6  led.o(.constdata)
    GPIO_CLK                                 0x0800dfb8   Data          12  led.o(.constdata)
    DEVICEID                                 0x0800dfcc   Data           7  main.o(.constdata)
    PASSWD                                   0x0800dfd3   Data           7  main.o(.constdata)
    IPADDR                                   0x0800dfda   Data          13  main.o(.constdata)
    IPPORT                                   0x0800dfe7   Data           5  main.o(.constdata)
    g_ucVERSION                              0x0800dfec   Data          18  main.o(.constdata)
    acceleration_para                        0x0800dffe   Data           3  main.o(.constdata)
    impact_time_para                         0x0800e001   Data           3  main.o(.constdata)
    Region$$Table$$Base                      0x0800e044   Number         0  anon$$obj.o(Region$$Table)
    Region$$Table$$Limit                     0x0800e064   Number         0  anon$$obj.o(Region$$Table)
    WakeTime1                                0x20000000   Data           1  smscmd.o(.data)
    pStart                                   0x20000004   Data           4  smscmd.o(.data)
    p1                                       0x20000008   Data           4  smscmd.o(.data)
    pEnd                                     0x2000000c   Data           4  smscmd.o(.data)
    capture                                  0x20000010   Data           2  stm32f0xx_it.o(.data)
    delayms_counter                          0x20000014   Data           4  stm32f0xx_it.o(.data)
    secondcounter                            0x20000018   Data           4  stm32f0xx_it.o(.data)
    Impact_flag                              0x2000001c   Data           1  stm32f0xx_it.o(.data)
    send_alarm_flag                          0x2000001d   Data           1  stm32f0xx_it.o(.data)
    ring_start_flag                          0x2000001e   Data           1  stm32f0xx_it.o(.data)
    ring_counter                             0x20000020   Data           4  stm32f0xx_it.o(.data)
    back_g_usHeartAternationTime             0x20000024   Data           4  stm32f0xx_it.o(.data)
    back_g_usGPRSUpLoadAternationTime        0x20000028   Data           4  stm32f0xx_it.o(.data)
    back_g_usGPRSUpLoadTime                  0x2000002c   Data           4  stm32f0xx_it.o(.data)
    RTC_ALARM_timer                          0x20000030   Data           2  stm32f0xx_it.o(.data)
    Impact_time_LED                          0x20000032   Data           1  stm32f0xx_it.o(.data)
    Impact_time_conut                        0x20000033   Data           1  stm32f0xx_it.o(.data)
    Impact_Alarm_flag                        0x20000034   Data           1  stm32f0xx_it.o(.data)
    Impact_Alarm_8s                          0x20000035   Data           1  stm32f0xx_it.o(.data)
    flag_start_duage_g_ucAlarm               0x20000036   Data           1  stm32f0xx_it.o(.data)
    duage_g_ucAlarm_counter                  0x20000038   Data           4  stm32f0xx_it.o(.data)
    start_accoff                             0x2000003c   Data           1  stm32f0xx_it.o(.data)
    accoff_counter                           0x20000040   Data           4  stm32f0xx_it.o(.data)
    shake_gate                               0x20000044   Data           1  stm32f0xx_it.o(.data)
    alarm_in_flag                            0x20000045   Data           1  stm32f0xx_it.o(.data)
    flag_mileage_save                        0x20000046   Data           1  stm32f0xx_it.o(.data)
    shake_num                                0x20000048   Data           2  stm32f0xx_it.o(.data)
    SystemCoreClock                          0x2000005c   Data           4  system_stm32f0xx.o(.data)
    AHBPrescTable                            0x20000060   Data          16  system_stm32f0xx.o(.data)
    flowwater                                0x20000070   Data           2  gprs.o(.data)
    ACC_GPS_flag                             0x20000072   Data           1  gprs.o(.data)
    ACC_GSM_flag                             0x20000073   Data           1  gprs.o(.data)
    time_gps_rtc                             0x20000084   Data           6  gprs.o(.data)
    backsecondforRTC                         0x2000008c   Data           4  gprs.o(.data)
    RTC_timeavalibe_flag                     0x20000090   Data           1  gprs.o(.data)
    RTC_seccount                             0x20000094   Data           4  gprs.o(.data)
    send_gps_gsm_flag                        0x20000098   Data           1  gprs.o(.data)
    in_agps                                  0x20000099   Data           1  gprs.o(.data)
    get_GC65_LL_Flag                         0x2000009a   Data           1  gprs.o(.data)
    AGPS_rec_len                             0x2000009c   Data           2  gprs.o(.data)
    Lac_g                                    0x200000a0   Data           4  gprs.o(.data)
    LacId_g                                  0x200000a4   Data           4  gprs.o(.data)
    flowwater_form_table                     0x200000cc   Data           2  gprs.o(.data)
    message_id_from_table                    0x200000ce   Data           2  gprs.o(.data)
    T_P_g_usGPRSUpLoadAternationTime         0x200000d0   Data           2  gprs.o(.data)
    T_P_time                                 0x200000d4   Data           4  gprs.o(.data)
    timegpserror                             0x200000d8   Data           2  gps.o(.data)
    dingwei_flag                             0x200000da   Data           1  gps.o(.data)
    dingweied_flag                           0x200000db   Data           1  gps.o(.data)
    GPS_module                               0x200000dc   Data           1  gps.o(.data)
    dial_status                              0x200000e0   Data           1  gsm.o(.data)
    net_status                               0x200000e1   Data           1  gsm.o(.data)
    CPIN_READY_flag                          0x200000e2   Data           1  gsm.o(.data)
    cops_flag                                0x200000e3   Data           1  gsm.o(.data)
    cops_flag_timer                          0x200000e4   Data           4  gsm.o(.data)
    SMS_StartGSM_Flag                        0x200000e8   Data           1  gsm.o(.data)
    g_ucSim900Status                         0x200000ec   Data           1  main.o(.data)
    g_ucUART6RXUsed                          0x200000ed   Data           1  main.o(.data)
    g_ucTaskList                             0x200000ee   Data           1  main.o(.data)
    g_ucCurrentSMSNum                        0x200000ef   Data           2  main.o(.data)
    g_ucInitSettingFlag                      0x200000f1   Data           1  main.o(.data)
    g_ucChargingFlag                         0x200000f2   Data           1  main.o(.data)
    g_ucUpdateFlag                           0x200000f3   Data           1  main.o(.data)
    g_ucLowPowerFlag                         0x200000f4   Data           1  main.o(.data)
    g_ucFStatus                              0x200000f5   Data           1  main.o(.data)
    g_ucHeartUpdateFlag                      0x200000f6   Data           1  main.o(.data)
    g_ucACCFlag                              0x200000f7   Data           1  main.o(.data)
    g_usCurrentSpeed                         0x200000f8   Data           2  main.o(.data)
    entersleepflag                           0x200000fa   Data           1  main.o(.data)
    rtc_wakeup_timer                         0x200000fc   Data           2  main.o(.data)
    g_ucGotoSleepFlag                        0x200000fe   Data           1  main.o(.data)
    REGNUMbeSET                              0x200000ff   Data           1  main.o(.data)
    TimeUpLdCnt                              0x20000100   Data           2  main.o(.data)
    g_ucGPRSCmdMissionFlag                   0x20000102   Data           1  main.o(.data)
    g_ucSMSCmdMissionFlag                    0x20000103   Data           1  main.o(.data)
    g_ucACC                                  0x20000104   Data           1  main.o(.data)
    g_ucSpeedLimitAlarm                      0x20000105   Data           1  main.o(.data)
    g_ucAlarm                                0x20000106   Data           1  main.o(.data)
    g_FlagENERGY                             0x20000107   Data           1  main.o(.data)
    ACCCount                                 0x20000108   Data           2  main.o(.data)
    ShakerCount                              0x2000010a   Data           2  main.o(.data)
    EN_initialize                            0x2000010c   Data           1  main.o(.data)
    LOWPOWERCount                            0x2000010e   Data           2  main.o(.data)
    intflag                                  0x20000110   Data           1  main.o(.data)
    bit_flag                                 0x20000111   Data           1  main.o(.data)
    CCR3_Val                                 0x20000112   Data           2  main.o(.data)
    CCR4_Val                                 0x20000114   Data           2  main.o(.data)
    PrescalerValue                           0x20000116   Data           2  main.o(.data)
    ADC1ConvertedValue                       0x20000118   Data           2  main.o(.data)
    ADC1ConvertedVoltage                     0x2000011a   Data           2  main.o(.data)
    lowbattcount                             0x2000011c   Data           4  main.o(.data)
    chinesesmsflag                           0x20000120   Data           1  main.o(.data)
    startchinesesms                          0x20000121   Data           1  main.o(.data)
    gps_gate                                 0x20000122   Data           1  main.o(.data)
    gps_copy                                 0x20000123   Data           1  main.o(.data)
    lowbatt_flag                             0x20000124   Data           1  main.o(.data)
    server_ack_flag                          0x20000125   Data           1  main.o(.data)
    server_noack_counter                     0x20000126   Data           2  main.o(.data)
    rst_gsm_flag                             0x20000128   Data           1  main.o(.data)
    mileage_tmp                              0x2000012a   Data           2  main.o(.data)
    MobileCompany                            0x2000012c   Data           4  main.o(.data)
    readio                                   0x20000130   Data           1  main.o(.data)
    alarm_interval_timer                     0x20000134   Data           4  main.o(.data)
    alarm_count                              0x20000138   Data           1  main.o(.data)
    g_ucSysMode                              0x20000139   Data           1  main.o(.data)
    voltage                                  0x2000013a   Data           2  main.o(.data)
    shakeon                                  0x2000013c   Data           1  main.o(.data)
    ring_sms                                 0x2000013d   Data           1  main.o(.data)
    BitFlag                                  0x2000013e   Data           1  main.o(.data)
    GPIO_InitStructure                       0x20000140   Data           8  main.o(.data)
    TimingDelay                              0x20000150   Data           4  i2c_lsm330.o(.data)
    ManualRx0                                0x20000154   Data           1  usart1.o(.data)
    gUart0RxCnt                              0x20000156   Data           2  usart1.o(.data)
    gps_reclen                               0x20000158   Data           1  usart1.o(.data)
    GPRSCmdCount                             0x2000015a   Data           2  usart1.o(.data)
    proGPRSCmdFlag                           0x2000015c   Data           1  usart1.o(.data)
    agps_len_to_send                         0x2000015e   Data           2  usart1.o(.data)
    AGPS_ov                                  0x20000160   Data           4  usart1.o(.data)
    fB5                                      0x20000164   Data           4  usart1.o(.data)
    fB5s                                     0x20000168   Data           4  usart1.o(.data)
    GPS_BaudRate_FLAG                        0x2000016c   Data           1  usart1.o(.data)
    in_gpsModule                             0x2000016d   Data           1  usart1.o(.data)
    smsdatareg                               0x20000184   Data         490  smscmd.o(.bss)
    timer                                    0x2000036e   Data          10  gprs.o(.bss)
    gps_ascii                                0x20000378   Data          52  gps.o(.bss)
    g_ucCurrentNum                           0x200003b0   Data          32  main.o(.bss)
    system_para                              0x200003d0   Data         232  main.o(.bss)
    g_ucSim900Buff                           0x200004b8   Data         512  main.o(.bss)
    g_ucNeo6QBuff                            0x200006b8   Data          85  main.o(.bss)
    backup_g_ucNeo6QBuff                     0x2000070d   Data          85  main.o(.bss)
    g_ucGPRSDataBuff                         0x20000762   Data         150  main.o(.bss)
    g_ucGPRSCmdBuff                          0x200007f8   Data         384  main.o(.bss)
    g_ucGPRSCmdBuffback                      0x20000978   Data         384  main.o(.bss)
    TIM_TimeBaseStructure                    0x20000af8   Data          12  main.o(.bss)
    TIM_OCInitStructure                      0x20000b04   Data          20  main.o(.bss)
    wzw_mileage                              0x20000b18   Data          16  main.o(.bss)
    UART1_ctl_t                              0x20000b28   Data          16  usart1.o(.bss)
    UART2_ctl_t                              0x20000b38   Data          16  usart1.o(.bss)
    UART1_tbuf                               0x20000b48   Data         512  usart1.o(.bss)
    UART2_rbuf                               0x20000d48   Data         128  usart1.o(.bss)
    __initial_sp                             0x20001dc8   Data           0  startup_stm32f0xx.o(STACK)



==============================================================================

Memory Map of the image

  Image Entry point : 0x080000c1

  Load Region LR_IROM1 (Base: 0x08000000, Size: 0x0000e1e8, Max: 0x00010000, ABSOLUTE, COMPRESSED[0x0000e098])

    Execution Region ER_IROM1 (Base: 0x08000000, Size: 0x0000e064, Max: 0x00010000, ABSOLUTE)

    Base Addr    Size         Type   Attr      Idx    E Section Name        Object

    0x08000000   0x000000c0   Data   RO          148    RESET               startup_stm32f0xx.o
    0x080000c0   0x00000000   Code   RO         5050  * .ARM.Collect$$$$00000000  mc_p.l(entry.o)
    0x080000c0   0x00000004   Code   RO         5116    .ARM.Collect$$$$00000001  mc_p.l(entry2.o)
    0x080000c4   0x00000004   Code   RO         5119    .ARM.Collect$$$$00000004  mc_p.l(entry5.o)
    0x080000c8   0x00000000   Code   RO         5121    .ARM.Collect$$$$00000008  mc_p.l(entry7b.o)
    0x080000c8   0x00000000   Code   RO         5123    .ARM.Collect$$$$0000000A  mc_p.l(entry8b.o)
    0x080000c8   0x00000008   Code   RO         5124    .ARM.Collect$$$$0000000B  mc_p.l(entry9a.o)
    0x080000d0   0x00000000   Code   RO         5126    .ARM.Collect$$$$0000000D  mc_p.l(entry10a.o)
    0x080000d0   0x00000000   Code   RO         5128    .ARM.Collect$$$$0000000F  mc_p.l(entry11a.o)
    0x080000d0   0x00000004   Code   RO         5117    .ARM.Collect$$$$00002712  mc_p.l(entry2.o)
    0x080000d4   0x0000001c   Code   RO          149    .text               startup_stm32f0xx.o
    0x080000f0   0x0000002c   Code   RO         5053    .text               mc_p.l(uidiv.o)
    0x0800011c   0x00000028   Code   RO         5055    .text               mc_p.l(idiv.o)
    0x08000144   0x00000060   Code   RO         5057    .text               mc_p.l(uldiv.o)
    0x080001a4   0x00000024   Code   RO         5059    .text               mc_p.l(memcpya.o)
    0x080001c8   0x00000024   Code   RO         5061    .text               mc_p.l(memseta.o)
    0x080001ec   0x00000018   Code   RO         5063    .text               mc_p.l(strcat.o)
    0x08000204   0x00000028   Code   RO         5065    .text               mc_p.l(strstr.o)
    0x0800022c   0x0000001a   Code   RO         5067    .text               mc_p.l(strncpy.o)
    0x08000246   0x0000000e   Code   RO         5069    .text               mc_p.l(strlen.o)
    0x08000254   0x00000028   Code   RO         5071    .text               mc_p.l(strncat.o)
    0x0800027c   0x00000012   Code   RO         5073    .text               mc_p.l(strcpy.o)
    0x0800028e   0x0000001e   Code   RO         5075    .text               mc_p.l(strncmp.o)
    0x080002ac   0x00000014   Code   RO         5079    .text               mc_p.l(uread4.o)
    0x080002c0   0x00000012   Code   RO         5081    .text               mc_p.l(uwrite4.o)
    0x080002d2   0x0000007a   Code   RO         5083    .text               mf_p.l(fmul.o)
    0x0800034c   0x0000007c   Code   RO         5085    .text               mf_p.l(fdiv.o)
    0x080003c8   0x0000000e   Code   RO         5095    .text               mf_p.l(ffltui.o)
    0x080003d6   0x00000028   Code   RO         5097    .text               mf_p.l(ffixui.o)
    0x080003fe   0x00000020   Code   RO         5130    .text               mc_p.l(llshl.o)
    0x0800041e   0x00000022   Code   RO         5132    .text               mc_p.l(llushr.o)
    0x08000440   0x00000000   Code   RO         5143    .text               mc_p.l(iusefp.o)
    0x08000440   0x00000084   Code   RO         5144    .text               mf_p.l(fepilogue.o)
    0x080004c4   0x00000024   Code   RO         5156    .text               mc_p.l(init.o)
    0x080004e8   0x0000003a   Code   RO         5168    .text               mc_p.l(__dczerorl.o)
    0x08000522   0x00000002   PAD
    0x08000524   0x0000009c   Code   RO         1404    i.ADC1_Config       adc.o
    0x080005c0   0x0000001c   Code   RO         1947    i.ADC_AutoPowerOffCmd  stm32f0xx_adc.o
    0x080005dc   0x00000018   Code   RO         1948    i.ADC_ChannelConfig  stm32f0xx_adc.o
    0x080005f4   0x00000018   Code   RO         1951    i.ADC_Cmd           stm32f0xx_adc.o
    0x0800060c   0x00000020   Code   RO         1955    i.ADC_DeInit        stm32f0xx_adc.o
    0x0800062c   0x0000003a   Code   RO         1957    i.ADC_GetCalibrationFactor  stm32f0xx_adc.o
    0x08000666   0x00000008   Code   RO         1958    i.ADC_GetConversionValue  stm32f0xx_adc.o
    0x0800066e   0x0000002c   Code   RO         1959    i.ADC_GetFlagStatus  stm32f0xx_adc.o
    0x0800069a   0x00000002   PAD
    0x0800069c   0x0000002c   Code   RO         1962    i.ADC_Init          stm32f0xx_adc.o
    0x080006c8   0x0000000a   Code   RO         1965    i.ADC_StartOfConversion  stm32f0xx_adc.o
    0x080006d2   0x0000000a   Code   RO         1966    i.ADC_StopOfConversion  stm32f0xx_adc.o
    0x080006dc   0x0000001c   Code   RO         1971    i.ADC_WaitModeCmd   stm32f0xx_adc.o
    0x080006f8   0x00000088   Code   RO         1245    i.Backup_Store_System_Para  main.o
    0x08000780   0x0000007c   Code   RO          853    i.BatteryStatusGet  gsm.o
    0x080007fc   0x0000005e   Code   RO          814    i.CheckSum          gps.o
    0x0800085a   0x00000002   PAD
    0x0800085c   0x00000058   Code   RO         1150    i.Check_AT          led.o
    0x080008b4   0x0000001c   Code   RO         1151    i.Clear_All_GSM_flag  led.o
    0x080008d0   0x0000001c   Code   RO          855    i.ClrGSMBuff        gsm.o
    0x080008ec   0x00000108   Code   RO          154    i.Cmd_ACC           smscmd.o
    0x080009f4   0x000000d4   Code   RO          155    i.Cmd_CXCS          smscmd.o
    0x08000ac8   0x000002b4   Code   RO          156    i.Cmd_CXZD          smscmd.o
    0x08000d7c   0x00000118   Code   RO          157    i.Cmd_CellID        smscmd.o
    0x08000e94   0x00000318   Code   RO          158    i.Cmd_DeviceInfo    smscmd.o
    0x080011ac   0x00000258   Code   RO          159    i.Cmd_Duration      smscmd.o
    0x08001404   0x00000110   Code   RO          160    i.Cmd_ENAUTOSMS     smscmd.o
    0x08001514   0x000000e8   Code   RO          161    i.Cmd_IMEI          smscmd.o
    0x080015fc   0x00000074   Code   RO          162    i.Cmd_Initial       smscmd.o
    0x08001670   0x000001a0   Code   RO          163    i.Cmd_NewNum        smscmd.o
    0x08001810   0x00000064   Code   RO          164    i.Cmd_Position      smscmd.o
    0x08001874   0x000005e4   Code   RO          165    i.Cmd_SETM          smscmd.o
    0x08001e58   0x000001c8   Code   RO          166    i.Cmd_SetMode       smscmd.o
    0x08002020   0x00000468   Code   RO          167    i.Cmd_SetNET        smscmd.o
    0x08002488   0x00000110   Code   RO          168    i.Cmd_SetPsw        smscmd.o
    0x08002598   0x000001ec   Code   RO          169    i.Cmd_SetWakeTime   smscmd.o
    0x08002784   0x00000160   Code   RO          170    i.Cmd_Setmid        smscmd.o
    0x080028e4   0x00000120   Code   RO          171    i.Cmd_ShowRegNum    smscmd.o
    0x08002a04   0x00000210   Code   RO          172    i.Cmd_SleepTime     smscmd.o
    0x08002c14   0x00000260   Code   RO          173    i.Cmd_SpeedLimit    smscmd.o
    0x08002e74   0x00000104   Code   RO          175    i.Cmd_relay         smscmd.o
    0x08002f78   0x00000148   Code   RO          176    i.Cmd_shocks        smscmd.o
    0x080030c0   0x00000164   Code   RO          856    i.Configuration_TEXT_SMS  gsm.o
    0x08003224   0x000000d4   Code   RO          857    i.Deal_GSMRTC       gsm.o
    0x080032f8   0x00000064   Code   RO          558    i.Deal_GSM_LAC      gprs.o
    0x0800335c   0x0000024c   Code   RO         1246    i.Deal_SMS          main.o
    0x080035a8   0x00000014   Code   RO          443    i.EXTI0_1_IRQHandler  stm32f0xx_it.o
    0x080035bc   0x00000114   Code   RO          444    i.EXTI4_15_IRQHandler  stm32f0xx_it.o
    0x080036d0   0x0000000c   Code   RO         2566    i.EXTI_ClearITPendingBit  stm32f0xx_exti.o
    0x080036dc   0x00000028   Code   RO         2570    i.EXTI_GetITStatus  stm32f0xx_exti.o
    0x08003704   0x00000088   Code   RO         2571    i.EXTI_Init         stm32f0xx_exti.o
    0x0800378c   0x0000000c   Code   RO         2623    i.FLASH_ClearFlag   stm32f0xx_flash.o
    0x08003798   0x0000004c   Code   RO         2625    i.FLASH_ErasePage   stm32f0xx_flash.o
    0x080037e4   0x00000024   Code   RO         1248    i.FLASH_ErasePage_Complete  main.o
    0x08003808   0x00000034   Code   RO         2628    i.FLASH_GetStatus   stm32f0xx_flash.o
    0x0800383c   0x00000014   Code   RO         2630    i.FLASH_Lock        stm32f0xx_flash.o
    0x08003850   0x0000006c   Code   RO         2648    i.FLASH_ProgramWord  stm32f0xx_flash.o
    0x080038bc   0x00000024   Code   RO         2650    i.FLASH_Unlock      stm32f0xx_flash.o
    0x080038e0   0x00000028   Code   RO         2651    i.FLASH_WaitForLastOperation  stm32f0xx_flash.o
    0x08003908   0x00000078   Code   RO          860    i.GC65_CGATT        gsm.o
    0x08003980   0x00000070   Code   RO          861    i.GC65_CPIN         gsm.o
    0x080039f0   0x00000090   Code   RO         2808    i.GPIO_Init         stm32f0xx_gpio.o
    0x08003a80   0x00000044   Code   RO         2809    i.GPIO_PinAFConfig  stm32f0xx_gpio.o
    0x08003ac4   0x00000012   Code   RO         2812    i.GPIO_ReadInputDataBit  stm32f0xx_gpio.o
    0x08003ad6   0x00000004   Code   RO         2815    i.GPIO_ResetBits    stm32f0xx_gpio.o
    0x08003ada   0x00000004   Code   RO         2816    i.GPIO_SetBits      stm32f0xx_gpio.o
    0x08003ade   0x00000002   PAD
    0x08003ae0   0x00000198   Code   RO          559    i.GPS_Deal          gprs.o
    0x08003c78   0x000001a4   Code   RO         1152    i.GSM_Power         led.o
    0x08003e1c   0x00000074   Code   RO          864    i.GSM_QICLOSED      gsm.o
    0x08003e90   0x0000002c   Code   RO         1153    i.GSM_reset         led.o
    0x08003ebc   0x0000020c   Code   RO          815    i.GetAvailableGPSInfoV  gps.o
    0x080040c8   0x00000034   Code   RO          865    i.GetAvailableGPSInfoV_N  gsm.o
    0x080040fc   0x00000108   Code   RO          866    i.GetGPRSStatus     gsm.o
    0x08004204   0x00000090   Code   RO         1405    i.GetVoltage        adc.o
    0x08004294   0x00000064   Code   RO         1406    i.Get_Adc           adc.o
    0x080042f8   0x0000008c   Code   RO         1800    i.Get_GPS_module    usart1.o
    0x08004384   0x00000038   Code   RO          445    i.HardFault_Handler  stm32f0xx_it.o
    0x080043bc   0x00000038   Code   RO         1715    i.IIC_lsm330_Ack    i2c_lsm330.o
    0x080043f4   0x00000038   Code   RO         1717    i.IIC_lsm330_NAck   i2c_lsm330.o
    0x0800442c   0x0000005c   Code   RO         1718    i.IIC_lsm330_Read_Byte  i2c_lsm330.o
    0x08004488   0x0000006c   Code   RO         1719    i.IIC_lsm330_Send_Byte  i2c_lsm330.o
    0x080044f4   0x00000038   Code   RO         1720    i.IIC_lsm330_Start  i2c_lsm330.o
    0x0800452c   0x00000038   Code   RO         1721    i.IIC_lsm330_Stop   i2c_lsm330.o
    0x08004564   0x00000054   Code   RO         1722    i.IIC_lsm330_Wait_Ack  i2c_lsm330.o
    0x080045b8   0x00000110   Code   RO         1154    i.IO_Init           led.o
    0x080046c8   0x00000010   Code   RO         3157    i.IWDG_Enable       stm32f0xx_iwdg.o
    0x080046d8   0x00000008   Code   RO         1878    i.IWDG_Feed         wdg.o
    0x080046e0   0x00000028   Code   RO         1879    i.IWDG_Init         wdg.o
    0x08004708   0x00000010   Code   RO         3159    i.IWDG_ReloadCounter  stm32f0xx_iwdg.o
    0x08004718   0x0000000c   Code   RO         3160    i.IWDG_SetPrescaler  stm32f0xx_iwdg.o
    0x08004724   0x0000000c   Code   RO         3161    i.IWDG_SetReload    stm32f0xx_iwdg.o
    0x08004730   0x0000000c   Code   RO         3163    i.IWDG_WriteAccessCmd  stm32f0xx_iwdg.o
    0x0800473c   0x000011f0   Code   RO         1374    i.InitialSetting    set_system_use_uart.o
    0x0800592c   0x0000003c   Code   RO          560    i.Is_Leap_Year      gprs.o
    0x08005968   0x0000005c   Code   RO         1439    i.LMS330DLC_AccGetDataRate  lsm330dlc_driver.o
    0x080059c4   0x0000003c   Code   RO         1440    i.LMS330DLC_AccSetIrqDuration  lsm330dlc_driver.o
    0x08005a00   0x00000018   Code   RO         1441    i.LMS330DLC_AccSetThreshold  lsm330dlc_driver.o
    0x08005a18   0x00000040   Code   RO         1457    i.LMS330DLC_ReadReg  lsm330dlc_driver.o
    0x08005a58   0x0000001e   Code   RO         1465    i.LMS330DLC_SetInt1Duration  lsm330dlc_driver.o
    0x08005a76   0x0000001e   Code   RO         1467    i.LMS330DLC_SetInt1Threshold  lsm330dlc_driver.o
    0x08005a94   0x00000030   Code   RO         1478    i.LMS330DLC_WriteReg  lsm330dlc_driver.o
    0x08005ac4   0x00000002   Code   RO          446    i.NMI_Handler       stm32f0xx_it.o
    0x08005ac6   0x00000002   PAD
    0x08005ac8   0x00000070   Code   RO         3209    i.NVIC_Init         stm32f0xx_misc.o
    0x08005b38   0x00000078   Code   RO         1249    i.NVIC_SetPriority  main.o
    0x08005bb0   0x00000028   Code   RO         3237    i.PWR_BackupAccessCmd  stm32f0xx_pwr.o
    0x08005bd8   0x00000044   Code   RO         3241    i.PWR_EnterSTOPMode  stm32f0xx_pwr.o
    0x08005c1c   0x00000002   Code   RO          447    i.PendSV_Handler    stm32f0xx_it.o
    0x08005c1e   0x00000002   PAD
    0x08005c20   0x00000090   Code   RO         1375    i.PrintATF          set_system_use_uart.o
    0x08005cb0   0x00000020   Code   RO         3308    i.RCC_AHBPeriphClockCmd  stm32f0xx_rcc.o
    0x08005cd0   0x00000020   Code   RO         3310    i.RCC_APB1PeriphClockCmd  stm32f0xx_rcc.o
    0x08005cf0   0x00000020   Code   RO         3311    i.RCC_APB1PeriphResetCmd  stm32f0xx_rcc.o
    0x08005d10   0x00000020   Code   RO         3312    i.RCC_APB2PeriphClockCmd  stm32f0xx_rcc.o
    0x08005d30   0x00000020   Code   RO         3313    i.RCC_APB2PeriphResetCmd  stm32f0xx_rcc.o
    0x08005d50   0x00000028   Code   RO         3316    i.RCC_BackupResetCmd  stm32f0xx_rcc.o
    0x08005d78   0x0000016c   Code   RO         3322    i.RCC_GetClocksFreq  stm32f0xx_rcc.o
    0x08005ee4   0x00000048   Code   RO         3323    i.RCC_GetFlagStatus  stm32f0xx_rcc.o
    0x08005f2c   0x00000024   Code   RO         3335    i.RCC_LSICmd        stm32f0xx_rcc.o
    0x08005f50   0x00000028   Code   RO         3341    i.RCC_RTCCLKCmd     stm32f0xx_rcc.o
    0x08005f78   0x00000010   Code   RO         3342    i.RCC_RTCCLKConfig  stm32f0xx_rcc.o
    0x08005f88   0x00000068   Code   RO         1155    i.RING_EXTI0_Config  led.o
    0x08005ff0   0x00000050   Code   RO          561    i.RTC2Position_time  gprs.o
    0x08006040   0x0000006c   Code   RO         3553    i.RTC_AlarmCmd      stm32f0xx_rtc.o
    0x080060ac   0x0000001a   Code   RO         3556    i.RTC_Bcd2ToByte    stm32f0xx_rtc.o
    0x080060c6   0x0000001c   Code   RO         3558    i.RTC_ByteToBcd2    stm32f0xx_rtc.o
    0x080060e2   0x00000002   PAD
    0x080060e4   0x00000024   Code   RO         3562    i.RTC_ClearITPendingBit  stm32f0xx_rtc.o
    0x08006108   0x000000f4   Code   RO         1250    i.RTC_Config        main.o
    0x080061fc   0x00000054   Code   RO         3566    i.RTC_EnterInitMode  stm32f0xx_rtc.o
    0x08006250   0x00000014   Code   RO         3567    i.RTC_ExitInitMode  stm32f0xx_rtc.o
    0x08006264   0x00000158   Code   RO          562    i.RTC_Get           gprs.o
    0x080063bc   0x0000004c   Code   RO         3572    i.RTC_GetITStatus   stm32f0xx_rtc.o
    0x08006408   0x00000030   Code   RO          448    i.RTC_IRQHandler    stm32f0xx_it.o
    0x08006438   0x00000064   Code   RO         3578    i.RTC_ITConfig      stm32f0xx_rtc.o
    0x0800649c   0x00000058   Code   RO         3579    i.RTC_Init          stm32f0xx_rtc.o
    0x080064f4   0x000000c0   Code   RO          563    i.RTC_Set           gprs.o
    0x080065b4   0x000000d4   Code   RO         3584    i.RTC_SetAlarm      stm32f0xx_rtc.o
    0x08006688   0x000000cc   Code   RO         3586    i.RTC_SetTime       stm32f0xx_rtc.o
    0x08006754   0x00000068   Code   RO         3599    i.RTC_WaitForSynchro  stm32f0xx_rtc.o
    0x080067bc   0x0000010c   Code   RO         1251    i.RestoreSystem     main.o
    0x080068c8   0x000000a8   Code   RO          867    i.SET_APN           gsm.o
    0x08006970   0x00000002   Code   RO          449    i.SVC_Handler       stm32f0xx_it.o
    0x08006972   0x00000002   PAD
    0x08006974   0x00000040   Code   RO         4057    i.SYSCFG_EXTILineConfig  stm32f0xx_syscfg.o
    0x080069b4   0x0000007c   Code   RO         1252    i.SYSCLKConfig_STOP  main.o
    0x08006a30   0x00000018   Code   RO          868    i.SendALARMSMS1     gsm.o
    0x08006a48   0x000001b8   Code   RO          564    i.SendGprs_Index    gprs.o
    0x08006c00   0x00000244   Code   RO          869    i.SendLocaSMS       gsm.o
    0x08006e44   0x00000012   Code   RO          870    i.SendLocaSMS1      gsm.o
    0x08006e56   0x00000002   PAD
    0x08006e58   0x000000e0   Code   RO          871    i.SendMsg           gsm.o
    0x08006f38   0x00000028   Code   RO          872    i.SendMsg_Parameter_error  gsm.o
    0x08006f60   0x00000024   Code   RO          873    i.SendMsg_Password_error  gsm.o
    0x08006f84   0x00000114   Code   RO          874    i.SendMsg_UCS2      gsm.o
    0x08007098   0x0000001c   Code   RO          875    i.Send_lowpower_LocaSMS  gsm.o
    0x080070b4   0x00000070   Code   RO          876    i.Send_speed_ALARMSMS  gsm.o
    0x08007124   0x000000f4   Code   RO          565    i.SetGPRS           gprs.o
    0x08007218   0x00000084   Code   RO          525    i.SetSysClock       system_stm32f0xx.o
    0x0800729c   0x00000084   Code   RO         1253    i.Set_Store_System_Para  main.o
    0x08007320   0x00000400   Code   RO          877    i.StartGPRS         gsm.o
    0x08007720   0x00000228   Code   RO          878    i.StartGPRStoAGPS   gsm.o
    0x08007948   0x00000058   Code   RO         1254    i.Store_System_Para  main.o
    0x080079a0   0x00000040   Code   RO         1255    i.SysTick_Config    main.o
    0x080079e0   0x00000240   Code   RO          450    i.SysTick_Handler   stm32f0xx_it.o
    0x08007c20   0x0000007c   Code   RO          527    i.SystemInit        system_stm32f0xx.o
    0x08007c9c   0x00000260   Code   RO          451    i.TIM3_IRQHandler   stm32f0xx_it.o
    0x08007efc   0x00000006   Code   RO         4122    i.TIM_ClearITPendingBit  stm32f0xx_tim.o
    0x08007f02   0x00000002   PAD
    0x08007f04   0x0000001c   Code   RO         4127    i.TIM_Cmd           stm32f0xx_tim.o
    0x08007f20   0x0000007c   Code   RO         1257    i.TIM_Config        main.o
    0x08007f9c   0x00000006   Code   RO         4144    i.TIM_GetCapture3   stm32f0xx_tim.o
    0x08007fa2   0x00000026   Code   RO         4148    i.TIM_GetITStatus   stm32f0xx_tim.o
    0x08007fc8   0x00000014   Code   RO         4152    i.TIM_ITConfig      stm32f0xx_tim.o
    0x08007fdc   0x00000006   Code   RO         4176    i.TIM_PrescalerConfig  stm32f0xx_tim.o
    0x08007fe2   0x00000004   Code   RO         4192    i.TIM_SetCompare3   stm32f0xx_tim.o
    0x08007fe6   0x00000002   PAD
    0x08007fe8   0x0000007c   Code   RO         4200    i.TIM_TimeBaseInit  stm32f0xx_tim.o
    0x08008064   0x00000040   Code   RO         1801    i.UART0_ReceiveData  usart1.o
    0x080080a4   0x00000138   Code   RO          881    i.UDPSendData_Index  gsm.o
    0x080081dc   0x000002a0   Code   RO         1802    i.USART1_IRQHandler  usart1.o
    0x0800847c   0x000003b8   Code   RO         1803    i.USART2_IRQHandler  usart1.o
    0x08008834   0x00000012   Code   RO         4680    i.USART_ClearITPendingBit  stm32f0xx_usart.o
    0x08008846   0x00000018   Code   RO         4683    i.USART_Cmd         stm32f0xx_usart.o
    0x0800885e   0x00000002   PAD
    0x08008860   0x00000040   Code   RO         4689    i.USART_DeInit      stm32f0xx_usart.o
    0x080088a0   0x0000004e   Code   RO         4692    i.USART_GetITStatus  stm32f0xx_usart.o
    0x080088ee   0x00000042   Code   RO         4694    i.USART_ITConfig    stm32f0xx_usart.o
    0x08008930   0x000000f0   Code   RO         4695    i.USART_Init        stm32f0xx_usart.o
    0x08008a20   0x0000000a   Code   RO         4707    i.USART_ReceiveData  stm32f0xx_usart.o
    0x08008a2a   0x00000008   Code   RO         4712    i.USART_SendData    stm32f0xx_usart.o
    0x08008a32   0x00000002   PAD
    0x08008a34   0x000000e8   Code   RO         1804    i.UbxConfig         usart1.o
    0x08008b1c   0x000000a4   Code   RO          883    i.WaitGSMOK1        gsm.o
    0x08008bc0   0x000000e0   Code   RO          884    i.WaitGSMOK2        gsm.o
    0x08008ca0   0x00000124   Code   RO          885    i.WaitGSM_ReadyCOPS  gsm.o
    0x08008dc4   0x000000c8   Code   RO          886    i.WaitGSM_ReadyNet  gsm.o
    0x08008e8c   0x0000008c   Code   RO          887    i.WaitGSM_ReadyQIMUX  gsm.o
    0x08008f18   0x0000001c   Code   RO          339    i.__ARM_common_switch8  smscmd.o
    0x08008f34   0x0000000e   Code   RO         5162    i.__scatterload_copy  mc_p.l(handlers.o)
    0x08008f42   0x00000002   Code   RO         5163    i.__scatterload_null  mc_p.l(handlers.o)
    0x08008f44   0x0000000e   Code   RO         5164    i.__scatterload_zeroinit  mc_p.l(handlers.o)
    0x08008f52   0x0000001e   Code   RO          177    i.all_ascii0        smscmd.o
    0x08008f70   0x000000ac   Code   RO          566    i.analysis          gprs.o
    0x0800901c   0x00000cd0   Code   RO          178    i.analysis_sms      smscmd.o
    0x08009cec   0x000002f4   Code   RO          567    i.asciitodate       gprs.o
    0x08009fe0   0x0000009c   Code   RO          568    i.asciitodirection  gprs.o
    0x0800a07c   0x0000010a   Code   RO          888    i.asciitohex        gsm.o
    0x0800a186   0x00000002   PAD
    0x0800a188   0x000000a4   Code   RO          569    i.asciitolatitude   gprs.o
    0x0800a22c   0x000000c0   Code   RO          571    i.asciitospeed      gprs.o
    0x0800a2ec   0x0000003c   Code   RO         1258    i.check_sleep_state  main.o
    0x0800a328   0x00000078   Code   RO          572    i.cmd_0002          gprs.o
    0x0800a3a0   0x00000058   Code   RO          573    i.cmd_0200          gprs.o
    0x0800a3f8   0x00000084   Code   RO          574    i.cmd_CHINESE_POSITION_rece  gprs.o
    0x0800a47c   0x0000009c   Code   RO          179    i.cmd_CSKMG         smscmd.o
    0x0800a518   0x000000a8   Code   RO          575    i.cmd_GENERAL_RESPONSION  gprs.o
    0x0800a5c0   0x0000019c   Code   RO          576    i.cmd_INQUIRE_CHINESE_POSITION  gprs.o
    0x0800a75c   0x000004a0   Code   RO          577    i.cmd_INQUIRE_ONE_TERMINAL_PARAMETER  gprs.o
    0x0800abfc   0x00000044   Code   RO          578    i.cmd_INQUIRE_POSITION  gprs.o
    0x0800ac40   0x00000408   Code   RO          579    i.cmd_INQUIRE_TERMINAL_PARAMETER  gprs.o
    0x0800b048   0x000000b4   Code   RO          580    i.cmd_OIL_BREAK     gprs.o
    0x0800b0fc   0x00000002   Code   RO          581    i.cmd_SET_GPRS_SERVICER  gprs.o
    0x0800b0fe   0x00000002   PAD
    0x0800b100   0x00000354   Code   RO          582    i.cmd_SET_TERMINAL_PARAMETER  gprs.o
    0x0800b454   0x00000060   Code   RO          583    i.cmd_TEMPORARY_POSTION  gprs.o
    0x0800b4b4   0x000000c0   Code   RO          584    i.constructor       gprs.o
    0x0800b574   0x000000d0   Code   RO         1805    i.ddi_uart1_init    usart1.o
    0x0800b644   0x0000009c   Code   RO         1806    i.ddi_uart2_init    usart1.o
    0x0800b6e0   0x0000005c   Code   RO         1807    i.ddi_uart_Write    usart1.o
    0x0800b73c   0x00000134   Code   RO         1808    i.ddi_uart_open     usart1.o
    0x0800b870   0x00000030   Code   RO          889    i.deal_g_ucSim900Status  gsm.o
    0x0800b8a0   0x00000020   Code   RO         1723    i.delayms           i2c_lsm330.o
    0x0800b8c0   0x00000016   Code   RO         1259    i.delayms_nodog     main.o
    0x0800b8d6   0x00000038   Code   RO         1724    i.delayus           i2c_lsm330.o
    0x0800b90e   0x00000002   PAD
    0x0800b910   0x000002fc   Code   RO         1260    i.energy            main.o
    0x0800bc0c   0x0000004c   Code   RO         1900    i.flash_copy        ddi_norflash.o
    0x0800bc58   0x0000001a   Code   RO         1156    i.get_ACC_CHECK_status  led.o
    0x0800bc72   0x0000001a   Code   RO         1157    i.get_ALARM_status  led.o
    0x0800bc8c   0x0000001c   Code   RO         1158    i.get_GSM_RING_status  led.o
    0x0800bca8   0x00000160   Code   RO          585    i.get_ID            gprs.o
    0x0800be08   0x000000b0   Code   RO          586    i.get_lac_gps       gprs.o
    0x0800beb8   0x00000148   Code   RO          892    i.hex2BCD_ASCII     gsm.o
    0x0800c000   0x00000020   Code   RO          893    i.hex2BCD_ASCII1    gsm.o
    0x0800c020   0x00000056   Code   RO          895    i.hextoascii        gsm.o
    0x0800c076   0x00000012   Code   RO          896    i.isdigit_w         gsm.o
    0x0800c088   0x00000036   Code   RO          897    i.isdigtit_len      gsm.o
    0x0800c0be   0x00000002   PAD
    0x0800c0c0   0x00000028   Code   RO         1725    i.lsm330_SDA_IN     i2c_lsm330.o
    0x0800c0e8   0x0000002c   Code   RO         1726    i.lsm330_SDA_OUT    i2c_lsm330.o
    0x0800c114   0x0000084c   Code   RO         1261    i.main              main.o
    0x0800c960   0x0000008c   Code   RO         1901    i.mileage_flash_init  ddi_norflash.o
    0x0800c9ec   0x000000c4   Code   RO         1902    i.mileage_init      ddi_norflash.o
    0x0800cab0   0x00000078   Code   RO         1903    i.mileage_read      ddi_norflash.o
    0x0800cb28   0x000001dc   Code   RO         1904    i.mileage_write     ddi_norflash.o
    0x0800cd04   0x00000030   Code   RO          588    i.porttou32         gprs.o
    0x0800cd34   0x0000002c   Code   RO          816    i.reset_gps         gps.o
    0x0800cd60   0x00000148   Code   RO          898    i.send_chinese_sms  gsm.o
    0x0800cea8   0x000004c4   Code   RO          589    i.send_location_gprs  gprs.o
    0x0800d36c   0x00000148   Code   RO          180    i.setSMS            smscmd.o
    0x0800d4b4   0x00000020   Code   RO         1160    i.set_GPS_POWERON   led.o
    0x0800d4d4   0x00000026   Code   RO         1481    i.set_Impact        lsm330dlc_driver.o
    0x0800d4fa   0x00000024   Code   RO         1162    i.set_OIL_BREAK     led.o
    0x0800d51e   0x00000002   PAD
    0x0800d520   0x000004b0   Code   RO          182    i.sub_cxcs          smscmd.o
    0x0800d9d0   0x00000026   Code   RO          591    i.swapHLchar        gprs.o
    0x0800d9f6   0x00000002   PAD
    0x0800d9f8   0x000000a0   Code   RO         1262    i.sys_Init          main.o
    0x0800da98   0x00000264   Code   RO          592    i.test_a_gps        gprs.o
    0x0800dcfc   0x000000a0   Code   RO          593    i.u32toport         gprs.o
    0x0800dd9c   0x000000f0   Code   RO          594    i.uploadLAC_InquireChinese  gprs.o
    0x0800de8c   0x0000000b   Data   RO          184    .constdata          smscmd.o
    0x0800de97   0x00000018   Data   RO          596    .constdata          gprs.o
    0x0800deaf   0x00000001   PAD
    0x0800deb0   0x000000ff   Data   RO          899    .constdata          gsm.o
    0x0800dfaf   0x00000001   PAD
    0x0800dfb0   0x0000001c   Data   RO         1163    .constdata          led.o
    0x0800dfcc   0x00000076   Data   RO         1264    .constdata          main.o
    0x0800e042   0x00000002   PAD
    0x0800e044   0x00000020   Data   RO         5160    Region$$Table       anon$$obj.o


    Execution Region RW_IRAM1 (Base: 0x20000000, Size: 0x00001dc8, Max: 0x00002000, ABSOLUTE, COMPRESSED[0x00000034])

    Base Addr    Size         Type   Attr      Idx    E Section Name        Object

    0x20000000   0x00000010   Data   RW          185    .data               smscmd.o
    0x20000010   0x0000004b   Data   RW          452    .data               stm32f0xx_it.o
    0x2000005b   0x00000001   PAD
    0x2000005c   0x00000014   Data   RW          528    .data               system_stm32f0xx.o
    0x20000070   0x00000068   Data   RW          597    .data               gprs.o
    0x200000d8   0x00000005   Data   RW          818    .data               gps.o
    0x200000dd   0x00000003   PAD
    0x200000e0   0x00000009   Data   RW          900    .data               gsm.o
    0x200000e9   0x00000003   PAD
    0x200000ec   0x00000060   Data   RW         1265    .data               main.o
    0x2000014c   0x00000001   Data   RW         1377    .data               set_system_use_uart.o
    0x2000014d   0x00000003   PAD
    0x20000150   0x00000004   Data   RW         1727    .data               i2c_lsm330.o
    0x20000154   0x0000001f   Data   RW         1811    .data               usart1.o
    0x20000173   0x00000010   Data   RW         3346    .data               stm32f0xx_rcc.o
    0x20000183   0x00000001   PAD
    0x20000184   0x000001ea   Zero   RW          183    .bss                smscmd.o
    0x2000036e   0x0000000a   Zero   RW          595    .bss                gprs.o
    0x20000378   0x00000034   Zero   RW          817    .bss                gps.o
    0x200003ac   0x00000004   PAD
    0x200003b0   0x00000778   Zero   RW         1263    .bss                main.o
    0x20000b28   0x000002a0   Zero   RW         1809    .bss                usart1.o
    0x20000dc8   0x00001000   Zero   RW          146    STACK               startup_stm32f0xx.o


==============================================================================

Image component sizes


      Code (inc. data)   RO Data    RW Data    ZI Data      Debug   Object Name

       400         20          0          0          0       2021   adc.o
      1008         42          0          0          0       3544   ddi_norflash.o
     10680        960         24        104         10      30551   gprs.o
       662         46          0          5         52       3450   gps.o
      6958       1662        255          9          0      22339   gsm.o
       680         44          0          4          0       6743   i2c_lsm330.o
      1104        148         28          0          0       7125   led.o
       386         20          0          0          0       5006   lsm330dlc_driver.o
      5054        724        118         96       1912      19623   main.o
      4736       1372          0          1          0       3452   set_system_use_uart.o
     15218       2194         11         16        490     179318   smscmd.o
        28          8        192          0       4096        644   startup_stm32f0xx.o
         0          0          0          0          0     158684   stm32f0_discovery.o
       310          8          0          0          0       6509   stm32f0xx_adc.o
       188         16          0          0          0       2040   stm32f0xx_exti.o
       344         38          0          0          0       4119   stm32f0xx_flash.o
       238          0          0          0          0       3327   stm32f0xx_gpio.o
      1590        284          0         75          0       5865   stm32f0xx_it.o
        68         34          0          0          0       2370   stm32f0xx_iwdg.o
       112          6          0          0          0        892   stm32f0xx_misc.o
       108         12          0          0          0       1110   stm32f0xx_pwr.o
       728         68          0         16          0       7049   stm32f0xx_rcc.o
      1086         52          0          0          0       8166   stm32f0xx_rtc.o
        64          4          0          0          0        612   stm32f0xx_syscfg.o
       232         38          0          0          0       5008   stm32f0xx_tim.o
       508         18          0          0          0       5736   stm32f0xx_usart.o
       256         22          0         20          0       1441   system_stm32f0xx.o
      2824        510          0         31        672      14281   usart1.o
        48          6          0          0          0        836   wdg.o

    ----------------------------------------------------------------------
     55654       8356        664        388       7236     511861   Object Totals
         0          0         32          0          0          0   (incl. Generated)
        36          0          4         11          4          0   (incl. Padding)

    ----------------------------------------------------------------------

      Code (inc. data)   RO Data    RW Data    ZI Data      Debug   Library Member Name

        58          0          0          0          0          0   __dczerorl.o
         0          0          0          0          0          0   entry.o
         0          0          0          0          0          0   entry10a.o
         0          0          0          0          0          0   entry11a.o
         8          4          0          0          0          0   entry2.o
         4          0          0          0          0          0   entry5.o
         0          0          0          0          0          0   entry7b.o
         0          0          0          0          0          0   entry8b.o
         8          4          0          0          0          0   entry9a.o
        30          0          0          0          0          0   handlers.o
        40          0          0          0          0         72   idiv.o
        36          8          0          0          0         68   init.o
         0          0          0          0          0          0   iusefp.o
        32          0          0          0          0         68   llshl.o
        34          0          0          0          0         68   llushr.o
        36          0          0          0          0         60   memcpya.o
        36          0          0          0          0        100   memseta.o
        24          0          0          0          0         60   strcat.o
        18          0          0          0          0         60   strcpy.o
        14          0          0          0          0         60   strlen.o
        40          0          0          0          0         68   strncat.o
        30          0          0          0          0         72   strncmp.o
        26          0          0          0          0         68   strncpy.o
        40          0          0          0          0         72   strstr.o
        44          0          0          0          0         72   uidiv.o
        96          0          0          0          0         84   uldiv.o
        20          0          0          0          0         60   uread4.o
        18          0          0          0          0         60   uwrite4.o
       124          0          0          0          0         72   fdiv.o
       132          0          0          0          0        144   fepilogue.o
        40          0          0          0          0         60   ffixui.o
        14          0          0          0          0         68   ffltui.o
       122          0          0          0          0         72   fmul.o

    ----------------------------------------------------------------------
      1126         16          0          0          0       1588   Library Totals
         2          0          0          0          0          0   (incl. Padding)

    ----------------------------------------------------------------------

      Code (inc. data)   RO Data    RW Data    ZI Data      Debug   Library Name

       692         16          0          0          0       1172   mc_p.l
       432          0          0          0          0        416   mf_p.l

    ----------------------------------------------------------------------
      1126         16          0          0          0       1588   Library Totals

    ----------------------------------------------------------------------

==============================================================================


      Code (inc. data)   RO Data    RW Data    ZI Data      Debug   

     56780       8372        664        388       7236     501693   Grand Totals
     56780       8372        664         52       7236     501693   ELF Image Totals (compressed)
     56780       8372        664         52          0          0   ROM Totals

==============================================================================

    Total RO  Size (Code + RO Data)                57444 (  56.10kB)
    Total RW  Size (RW Data + ZI Data)              7624 (   7.45kB)
    Total ROM Size (Code + RO Data + RW Data)      57496 (  56.15kB)

==============================================================================

